

Microchip MPLAB XC8 Assembler V2.45 build 20230818022343 
                                                                                               Sun Oct 08 02:47:44 2023

Microchip MPLAB XC8 C Compiler v2.45 (Free license) build 20230818022343 Og1 
     1                           	processor	16F1503
     2                           	pagewidth 120
     3                           	opt	flic
     4                           	psect	idataBANK0,global,class=CODE,delta=2,noexec
     5                           	psect	stringtext1,global,class=STRCODE,delta=2,noexec
     6                           	psect	stringtext2,global,class=STRCODE,delta=2,noexec
     7                           	psect	stringtext3,global,class=STRCODE,delta=2,noexec
     8                           	psect	cinit,global,class=CODE,merge=1,delta=2
     9                           	psect	bssBANK0,global,class=BANK0,space=1,delta=1,noexec
    10                           	psect	dataBANK0,global,class=BANK0,space=1,delta=1,noexec
    11                           	psect	bssBANK1,global,class=BANK1,space=1,delta=1,noexec
    12                           	psect	clrtext,global,class=CODE,delta=2
    13                           	psect	cstackCOMMON,global,class=COMMON,space=1,delta=1,noexec
    14                           	psect	cstackBANK0,global,class=BANK0,space=1,delta=1,noexec
    15                           	psect	maintext,global,class=CODE,merge=1,split=1,delta=2
    16                           	psect	text1,local,class=CODE,merge=1,delta=2
    17                           	psect	text2,local,class=CODE,merge=1,delta=2
    18                           	psect	text3,local,class=CODE,merge=1,delta=2
    19                           	psect	text4,local,class=CODE,merge=1,delta=2
    20                           	psect	text5,local,class=CODE,merge=1,delta=2
    21                           	psect	text6,local,class=CODE,merge=1,delta=2
    22                           	psect	text7,local,class=CODE,merge=1,delta=2
    23                           	psect	text8,local,class=CODE,merge=1,delta=2
    24                           	psect	text9,local,class=CODE,merge=1,delta=2
    25                           	psect	text10,local,class=CODE,merge=1,delta=2
    26                           	psect	text11,local,class=CODE,merge=1,delta=2
    27                           	psect	text12,local,class=CODE,merge=1,delta=2,group=2
    28                           	psect	text13,local,class=CODE,merge=1,delta=2,group=3
    29                           	psect	text14,local,class=CODE,merge=1,delta=2,group=1
    30                           	psect	text15,local,class=CODE,merge=1,delta=2,group=1
    31                           	psect	text16,local,class=CODE,merge=1,delta=2,group=3
    32                           	psect	text17,local,class=CODE,merge=1,delta=2,group=3
    33                           	psect	text18,local,class=CODE,merge=1,delta=2,group=2
    34                           	psect	text19,local,class=CODE,merge=1,delta=2
    35                           	psect	text20,local,class=CODE,merge=1,delta=2
    36                           	psect	text21,local,class=CODE,merge=1,delta=2
    37                           	psect	text22,local,class=CODE,merge=1,delta=2,group=2
    38                           	psect	text23,local,class=CODE,merge=1,delta=2,group=2
    39                           	psect	text24,local,class=CODE,merge=1,delta=2
    40                           	psect	text25,local,class=CODE,merge=1,delta=2,group=2
    41                           	psect	idloc,global,abs,ovrld,class=IDLOC,space=5,delta=2,noexec
    42                           	psect	config,global,abs,ovrld,class=CONFIG,space=4,delta=2,noexec
    43                           	dabs	1,0x7E,2
    44     0000                     
    45                           ; Version 2.40
    46                           ; Generated 17/11/2021 GMT
    47                           ; 
    48                           ; Copyright © 2021, Microchip Technology Inc. and its subsidiaries ("Microchip")
    49                           ; All rights reserved.
    50                           ; 
    51                           ; This software is developed by Microchip Technology Inc. and its subsidiaries ("Microch
      +                          ip").
    52                           ; 
    53                           ; Redistribution and use in source and binary forms, with or without modification, are
    54                           ; permitted provided that the following conditions are met:
    55                           ; 
    56                           ;     1. Redistributions of source code must retain the above copyright notice, this lis
      +                          t of
    57                           ;        conditions and the following disclaimer.
    58                           ; 
    59                           ;     2. Redistributions in binary form must reproduce the above copyright notice, this 
      +                          list
    60                           ;        of conditions and the following disclaimer in the documentation and/or other
    61                           ;        materials provided with the distribution. Publication is not required when
    62                           ;        this file is used in an embedded application.
    63                           ; 
    64                           ;     3. Microchip's name may not be used to endorse or promote products derived from th
      +                          is
    65                           ;        software without specific prior written permission.
    66                           ; 
    67                           ; THIS SOFTWARE IS PROVIDED BY MICROCHIP "AS IS" AND ANY EXPRESS OR IMPLIED WARRANTIES,
    68                           ; INCLUDING, BUT NOT LIMITED TO, THE IMPLIED WARRANTIES OF MERCHANTABILITY AND FITNESS F
      +                          OR
    69                           ; PURPOSE ARE DISCLAIMED.  IN NO EVENT SHALL MICROCHIP BE LIABLE FOR ANY DIRECT, INDIREC
      +                          T,
    70                           ; INCIDENTAL, SPECIAL, EXEMPLARY, OR CONSEQUENTIAL DAMAGES (INCLUDING BUT NOT LIMITED TO
    71                           ; PROCUREMENT OF SUBSTITUTE GOODS OR SERVICES; LOSS OF USE, DATA OR PROFITS; OR BUSINESS
    72                           ; INTERRUPTION) HOWSOEVER CAUSED AND ON ANY THEORY OF LIABILITY, WHETHER IN CONTRACT, ST
      +                          RICT
    73                           ; LIABILITY, OR TORT (INCLUDING NEGLIGENCE OR OTHERWISE) ARISING IN ANY WAY OUT OF THE U
      +                          SE OF
    74                           ; THIS SOFTWARE, EVEN IF ADVISED OF THE POSSIBILITY OF SUCH DAMAGE.
    75                           ; 
    76                           ; 
    77                           ; Code-generator required, PIC16F1503 Definitions
    78                           ; 
    79                           ; SFR Addresses
    80     0000                     	;# 
    81     0001                     	;# 
    82     0002                     	;# 
    83     0003                     	;# 
    84     0004                     	;# 
    85     0005                     	;# 
    86     0006                     	;# 
    87     0007                     	;# 
    88     0008                     	;# 
    89     0009                     	;# 
    90     000A                     	;# 
    91     000B                     	;# 
    92     000C                     	;# 
    93     000E                     	;# 
    94     0011                     	;# 
    95     0012                     	;# 
    96     0013                     	;# 
    97     0015                     	;# 
    98     0016                     	;# 
    99     0016                     	;# 
   100     0017                     	;# 
   101     0018                     	;# 
   102     0019                     	;# 
   103     001A                     	;# 
   104     001B                     	;# 
   105     001C                     	;# 
   106     008C                     	;# 
   107     008E                     	;# 
   108     0091                     	;# 
   109     0092                     	;# 
   110     0093                     	;# 
   111     0095                     	;# 
   112     0096                     	;# 
   113     0097                     	;# 
   114     0099                     	;# 
   115     009A                     	;# 
   116     009B                     	;# 
   117     009B                     	;# 
   118     009C                     	;# 
   119     009D                     	;# 
   120     009E                     	;# 
   121     009F                     	;# 
   122     010C                     	;# 
   123     010E                     	;# 
   124     0111                     	;# 
   125     0112                     	;# 
   126     0113                     	;# 
   127     0114                     	;# 
   128     0115                     	;# 
   129     0116                     	;# 
   130     0117                     	;# 
   131     0118                     	;# 
   132     0119                     	;# 
   133     011D                     	;# 
   134     018C                     	;# 
   135     018E                     	;# 
   136     0191                     	;# 
   137     0191                     	;# 
   138     0192                     	;# 
   139     0193                     	;# 
   140     0193                     	;# 
   141     0194                     	;# 
   142     0195                     	;# 
   143     0196                     	;# 
   144     0197                     	;# 
   145     020C                     	;# 
   146     0211                     	;# 
   147     0211                     	;# 
   148     0212                     	;# 
   149     0212                     	;# 
   150     0213                     	;# 
   151     0213                     	;# 
   152     0214                     	;# 
   153     0214                     	;# 
   154     0215                     	;# 
   155     0215                     	;# 
   156     0215                     	;# 
   157     0216                     	;# 
   158     0216                     	;# 
   159     0217                     	;# 
   160     0217                     	;# 
   161     0391                     	;# 
   162     0392                     	;# 
   163     0393                     	;# 
   164     0498                     	;# 
   165     0498                     	;# 
   166     0499                     	;# 
   167     049A                     	;# 
   168     049B                     	;# 
   169     049B                     	;# 
   170     049C                     	;# 
   171     049D                     	;# 
   172     049E                     	;# 
   173     049F                     	;# 
   174     0611                     	;# 
   175     0612                     	;# 
   176     0613                     	;# 
   177     0613                     	;# 
   178     0614                     	;# 
   179     0615                     	;# 
   180     0616                     	;# 
   181     0616                     	;# 
   182     0617                     	;# 
   183     0618                     	;# 
   184     0619                     	;# 
   185     0619                     	;# 
   186     061A                     	;# 
   187     061B                     	;# 
   188     061C                     	;# 
   189     061C                     	;# 
   190     0691                     	;# 
   191     0692                     	;# 
   192     0693                     	;# 
   193     0694                     	;# 
   194     0695                     	;# 
   195     0F0F                     	;# 
   196     0F10                     	;# 
   197     0F11                     	;# 
   198     0F12                     	;# 
   199     0F13                     	;# 
   200     0F14                     	;# 
   201     0F15                     	;# 
   202     0F16                     	;# 
   203     0F17                     	;# 
   204     0F18                     	;# 
   205     0F19                     	;# 
   206     0F1A                     	;# 
   207     0F1B                     	;# 
   208     0F1C                     	;# 
   209     0F1D                     	;# 
   210     0F1E                     	;# 
   211     0F1F                     	;# 
   212     0FE3                     	;# 
   213     0FE4                     	;# 
   214     0FE5                     	;# 
   215     0FE6                     	;# 
   216     0FE7                     	;# 
   217     0FE8                     	;# 
   218     0FE9                     	;# 
   219     0FEA                     	;# 
   220     0FEB                     	;# 
   221     0FED                     	;# 
   222     0FEE                     	;# 
   223     0FEF                     	;# 
   224     0000                     	;# 
   225     0001                     	;# 
   226     0002                     	;# 
   227     0003                     	;# 
   228     0004                     	;# 
   229     0005                     	;# 
   230     0006                     	;# 
   231     0007                     	;# 
   232     0008                     	;# 
   233     0009                     	;# 
   234     000A                     	;# 
   235     000B                     	;# 
   236     000C                     	;# 
   237     000E                     	;# 
   238     0011                     	;# 
   239     0012                     	;# 
   240     0013                     	;# 
   241     0015                     	;# 
   242     0016                     	;# 
   243     0016                     	;# 
   244     0017                     	;# 
   245     0018                     	;# 
   246     0019                     	;# 
   247     001A                     	;# 
   248     001B                     	;# 
   249     001C                     	;# 
   250     008C                     	;# 
   251     008E                     	;# 
   252     0091                     	;# 
   253     0092                     	;# 
   254     0093                     	;# 
   255     0095                     	;# 
   256     0096                     	;# 
   257     0097                     	;# 
   258     0099                     	;# 
   259     009A                     	;# 
   260     009B                     	;# 
   261     009B                     	;# 
   262     009C                     	;# 
   263     009D                     	;# 
   264     009E                     	;# 
   265     009F                     	;# 
   266     010C                     	;# 
   267     010E                     	;# 
   268     0111                     	;# 
   269     0112                     	;# 
   270     0113                     	;# 
   271     0114                     	;# 
   272     0115                     	;# 
   273     0116                     	;# 
   274     0117                     	;# 
   275     0118                     	;# 
   276     0119                     	;# 
   277     011D                     	;# 
   278     018C                     	;# 
   279     018E                     	;# 
   280     0191                     	;# 
   281     0191                     	;# 
   282     0192                     	;# 
   283     0193                     	;# 
   284     0193                     	;# 
   285     0194                     	;# 
   286     0195                     	;# 
   287     0196                     	;# 
   288     0197                     	;# 
   289     020C                     	;# 
   290     0211                     	;# 
   291     0211                     	;# 
   292     0212                     	;# 
   293     0212                     	;# 
   294     0213                     	;# 
   295     0213                     	;# 
   296     0214                     	;# 
   297     0214                     	;# 
   298     0215                     	;# 
   299     0215                     	;# 
   300     0215                     	;# 
   301     0216                     	;# 
   302     0216                     	;# 
   303     0217                     	;# 
   304     0217                     	;# 
   305     0391                     	;# 
   306     0392                     	;# 
   307     0393                     	;# 
   308     0498                     	;# 
   309     0498                     	;# 
   310     0499                     	;# 
   311     049A                     	;# 
   312     049B                     	;# 
   313     049B                     	;# 
   314     049C                     	;# 
   315     049D                     	;# 
   316     049E                     	;# 
   317     049F                     	;# 
   318     0611                     	;# 
   319     0612                     	;# 
   320     0613                     	;# 
   321     0613                     	;# 
   322     0614                     	;# 
   323     0615                     	;# 
   324     0616                     	;# 
   325     0616                     	;# 
   326     0617                     	;# 
   327     0618                     	;# 
   328     0619                     	;# 
   329     0619                     	;# 
   330     061A                     	;# 
   331     061B                     	;# 
   332     061C                     	;# 
   333     061C                     	;# 
   334     0691                     	;# 
   335     0692                     	;# 
   336     0693                     	;# 
   337     0694                     	;# 
   338     0695                     	;# 
   339     0F0F                     	;# 
   340     0F10                     	;# 
   341     0F11                     	;# 
   342     0F12                     	;# 
   343     0F13                     	;# 
   344     0F14                     	;# 
   345     0F15                     	;# 
   346     0F16                     	;# 
   347     0F17                     	;# 
   348     0F18                     	;# 
   349     0F19                     	;# 
   350     0F1A                     	;# 
   351     0F1B                     	;# 
   352     0F1C                     	;# 
   353     0F1D                     	;# 
   354     0F1E                     	;# 
   355     0F1F                     	;# 
   356     0FE3                     	;# 
   357     0FE4                     	;# 
   358     0FE5                     	;# 
   359     0FE6                     	;# 
   360     0FE7                     	;# 
   361     0FE8                     	;# 
   362     0FE9                     	;# 
   363     0FEA                     	;# 
   364     0FEB                     	;# 
   365     0FED                     	;# 
   366     0FEE                     	;# 
   367     0FEF                     	;# 
   368     0000                     	;# 
   369     0001                     	;# 
   370     0002                     	;# 
   371     0003                     	;# 
   372     0004                     	;# 
   373     0005                     	;# 
   374     0006                     	;# 
   375     0007                     	;# 
   376     0008                     	;# 
   377     0009                     	;# 
   378     000A                     	;# 
   379     000B                     	;# 
   380     000C                     	;# 
   381     000E                     	;# 
   382     0011                     	;# 
   383     0012                     	;# 
   384     0013                     	;# 
   385     0015                     	;# 
   386     0016                     	;# 
   387     0016                     	;# 
   388     0017                     	;# 
   389     0018                     	;# 
   390     0019                     	;# 
   391     001A                     	;# 
   392     001B                     	;# 
   393     001C                     	;# 
   394     008C                     	;# 
   395     008E                     	;# 
   396     0091                     	;# 
   397     0092                     	;# 
   398     0093                     	;# 
   399     0095                     	;# 
   400     0096                     	;# 
   401     0097                     	;# 
   402     0099                     	;# 
   403     009A                     	;# 
   404     009B                     	;# 
   405     009B                     	;# 
   406     009C                     	;# 
   407     009D                     	;# 
   408     009E                     	;# 
   409     009F                     	;# 
   410     010C                     	;# 
   411     010E                     	;# 
   412     0111                     	;# 
   413     0112                     	;# 
   414     0113                     	;# 
   415     0114                     	;# 
   416     0115                     	;# 
   417     0116                     	;# 
   418     0117                     	;# 
   419     0118                     	;# 
   420     0119                     	;# 
   421     011D                     	;# 
   422     018C                     	;# 
   423     018E                     	;# 
   424     0191                     	;# 
   425     0191                     	;# 
   426     0192                     	;# 
   427     0193                     	;# 
   428     0193                     	;# 
   429     0194                     	;# 
   430     0195                     	;# 
   431     0196                     	;# 
   432     0197                     	;# 
   433     020C                     	;# 
   434     0211                     	;# 
   435     0211                     	;# 
   436     0212                     	;# 
   437     0212                     	;# 
   438     0213                     	;# 
   439     0213                     	;# 
   440     0214                     	;# 
   441     0214                     	;# 
   442     0215                     	;# 
   443     0215                     	;# 
   444     0215                     	;# 
   445     0216                     	;# 
   446     0216                     	;# 
   447     0217                     	;# 
   448     0217                     	;# 
   449     0391                     	;# 
   450     0392                     	;# 
   451     0393                     	;# 
   452     0498                     	;# 
   453     0498                     	;# 
   454     0499                     	;# 
   455     049A                     	;# 
   456     049B                     	;# 
   457     049B                     	;# 
   458     049C                     	;# 
   459     049D                     	;# 
   460     049E                     	;# 
   461     049F                     	;# 
   462     0611                     	;# 
   463     0612                     	;# 
   464     0613                     	;# 
   465     0613                     	;# 
   466     0614                     	;# 
   467     0615                     	;# 
   468     0616                     	;# 
   469     0616                     	;# 
   470     0617                     	;# 
   471     0618                     	;# 
   472     0619                     	;# 
   473     0619                     	;# 
   474     061A                     	;# 
   475     061B                     	;# 
   476     061C                     	;# 
   477     061C                     	;# 
   478     0691                     	;# 
   479     0692                     	;# 
   480     0693                     	;# 
   481     0694                     	;# 
   482     0695                     	;# 
   483     0F0F                     	;# 
   484     0F10                     	;# 
   485     0F11                     	;# 
   486     0F12                     	;# 
   487     0F13                     	;# 
   488     0F14                     	;# 
   489     0F15                     	;# 
   490     0F16                     	;# 
   491     0F17                     	;# 
   492     0F18                     	;# 
   493     0F19                     	;# 
   494     0F1A                     	;# 
   495     0F1B                     	;# 
   496     0F1C                     	;# 
   497     0F1D                     	;# 
   498     0F1E                     	;# 
   499     0F1F                     	;# 
   500     0FE3                     	;# 
   501     0FE4                     	;# 
   502     0FE5                     	;# 
   503     0FE6                     	;# 
   504     0FE7                     	;# 
   505     0FE8                     	;# 
   506     0FE9                     	;# 
   507     0FEA                     	;# 
   508     0FEB                     	;# 
   509     0FED                     	;# 
   510     0FEE                     	;# 
   511     0FEF                     	;# 
   512     0000                     	;# 
   513     0001                     	;# 
   514     0002                     	;# 
   515     0003                     	;# 
   516     0004                     	;# 
   517     0005                     	;# 
   518     0006                     	;# 
   519     0007                     	;# 
   520     0008                     	;# 
   521     0009                     	;# 
   522     000A                     	;# 
   523     000B                     	;# 
   524     000C                     	;# 
   525     000E                     	;# 
   526     0011                     	;# 
   527     0012                     	;# 
   528     0013                     	;# 
   529     0015                     	;# 
   530     0016                     	;# 
   531     0016                     	;# 
   532     0017                     	;# 
   533     0018                     	;# 
   534     0019                     	;# 
   535     001A                     	;# 
   536     001B                     	;# 
   537     001C                     	;# 
   538     008C                     	;# 
   539     008E                     	;# 
   540     0091                     	;# 
   541     0092                     	;# 
   542     0093                     	;# 
   543     0095                     	;# 
   544     0096                     	;# 
   545     0097                     	;# 
   546     0099                     	;# 
   547     009A                     	;# 
   548     009B                     	;# 
   549     009B                     	;# 
   550     009C                     	;# 
   551     009D                     	;# 
   552     009E                     	;# 
   553     009F                     	;# 
   554     010C                     	;# 
   555     010E                     	;# 
   556     0111                     	;# 
   557     0112                     	;# 
   558     0113                     	;# 
   559     0114                     	;# 
   560     0115                     	;# 
   561     0116                     	;# 
   562     0117                     	;# 
   563     0118                     	;# 
   564     0119                     	;# 
   565     011D                     	;# 
   566     018C                     	;# 
   567     018E                     	;# 
   568     0191                     	;# 
   569     0191                     	;# 
   570     0192                     	;# 
   571     0193                     	;# 
   572     0193                     	;# 
   573     0194                     	;# 
   574     0195                     	;# 
   575     0196                     	;# 
   576     0197                     	;# 
   577     020C                     	;# 
   578     0211                     	;# 
   579     0211                     	;# 
   580     0212                     	;# 
   581     0212                     	;# 
   582     0213                     	;# 
   583     0213                     	;# 
   584     0214                     	;# 
   585     0214                     	;# 
   586     0215                     	;# 
   587     0215                     	;# 
   588     0215                     	;# 
   589     0216                     	;# 
   590     0216                     	;# 
   591     0217                     	;# 
   592     0217                     	;# 
   593     0391                     	;# 
   594     0392                     	;# 
   595     0393                     	;# 
   596     0498                     	;# 
   597     0498                     	;# 
   598     0499                     	;# 
   599     049A                     	;# 
   600     049B                     	;# 
   601     049B                     	;# 
   602     049C                     	;# 
   603     049D                     	;# 
   604     049E                     	;# 
   605     049F                     	;# 
   606     0611                     	;# 
   607     0612                     	;# 
   608     0613                     	;# 
   609     0613                     	;# 
   610     0614                     	;# 
   611     0615                     	;# 
   612     0616                     	;# 
   613     0616                     	;# 
   614     0617                     	;# 
   615     0618                     	;# 
   616     0619                     	;# 
   617     0619                     	;# 
   618     061A                     	;# 
   619     061B                     	;# 
   620     061C                     	;# 
   621     061C                     	;# 
   622     0691                     	;# 
   623     0692                     	;# 
   624     0693                     	;# 
   625     0694                     	;# 
   626     0695                     	;# 
   627     0F0F                     	;# 
   628     0F10                     	;# 
   629     0F11                     	;# 
   630     0F12                     	;# 
   631     0F13                     	;# 
   632     0F14                     	;# 
   633     0F15                     	;# 
   634     0F16                     	;# 
   635     0F17                     	;# 
   636     0F18                     	;# 
   637     0F19                     	;# 
   638     0F1A                     	;# 
   639     0F1B                     	;# 
   640     0F1C                     	;# 
   641     0F1D                     	;# 
   642     0F1E                     	;# 
   643     0F1F                     	;# 
   644     0FE3                     	;# 
   645     0FE4                     	;# 
   646     0FE5                     	;# 
   647     0FE6                     	;# 
   648     0FE7                     	;# 
   649     0FE8                     	;# 
   650     0FE9                     	;# 
   651     0FEA                     	;# 
   652     0FEB                     	;# 
   653     0FED                     	;# 
   654     0FEE                     	;# 
   655     0FEF                     	;# 
   656     0000                     	;# 
   657     0001                     	;# 
   658     0002                     	;# 
   659     0003                     	;# 
   660     0004                     	;# 
   661     0005                     	;# 
   662     0006                     	;# 
   663     0007                     	;# 
   664     0008                     	;# 
   665     0009                     	;# 
   666     000A                     	;# 
   667     000B                     	;# 
   668     000C                     	;# 
   669     000E                     	;# 
   670     0011                     	;# 
   671     0012                     	;# 
   672     0013                     	;# 
   673     0015                     	;# 
   674     0016                     	;# 
   675     0016                     	;# 
   676     0017                     	;# 
   677     0018                     	;# 
   678     0019                     	;# 
   679     001A                     	;# 
   680     001B                     	;# 
   681     001C                     	;# 
   682     008C                     	;# 
   683     008E                     	;# 
   684     0091                     	;# 
   685     0092                     	;# 
   686     0093                     	;# 
   687     0095                     	;# 
   688     0096                     	;# 
   689     0097                     	;# 
   690     0099                     	;# 
   691     009A                     	;# 
   692     009B                     	;# 
   693     009B                     	;# 
   694     009C                     	;# 
   695     009D                     	;# 
   696     009E                     	;# 
   697     009F                     	;# 
   698     010C                     	;# 
   699     010E                     	;# 
   700     0111                     	;# 
   701     0112                     	;# 
   702     0113                     	;# 
   703     0114                     	;# 
   704     0115                     	;# 
   705     0116                     	;# 
   706     0117                     	;# 
   707     0118                     	;# 
   708     0119                     	;# 
   709     011D                     	;# 
   710     018C                     	;# 
   711     018E                     	;# 
   712     0191                     	;# 
   713     0191                     	;# 
   714     0192                     	;# 
   715     0193                     	;# 
   716     0193                     	;# 
   717     0194                     	;# 
   718     0195                     	;# 
   719     0196                     	;# 
   720     0197                     	;# 
   721     020C                     	;# 
   722     0211                     	;# 
   723     0211                     	;# 
   724     0212                     	;# 
   725     0212                     	;# 
   726     0213                     	;# 
   727     0213                     	;# 
   728     0214                     	;# 
   729     0214                     	;# 
   730     0215                     	;# 
   731     0215                     	;# 
   732     0215                     	;# 
   733     0216                     	;# 
   734     0216                     	;# 
   735     0217                     	;# 
   736     0217                     	;# 
   737     0391                     	;# 
   738     0392                     	;# 
   739     0393                     	;# 
   740     0498                     	;# 
   741     0498                     	;# 
   742     0499                     	;# 
   743     049A                     	;# 
   744     049B                     	;# 
   745     049B                     	;# 
   746     049C                     	;# 
   747     049D                     	;# 
   748     049E                     	;# 
   749     049F                     	;# 
   750     0611                     	;# 
   751     0612                     	;# 
   752     0613                     	;# 
   753     0613                     	;# 
   754     0614                     	;# 
   755     0615                     	;# 
   756     0616                     	;# 
   757     0616                     	;# 
   758     0617                     	;# 
   759     0618                     	;# 
   760     0619                     	;# 
   761     0619                     	;# 
   762     061A                     	;# 
   763     061B                     	;# 
   764     061C                     	;# 
   765     061C                     	;# 
   766     0691                     	;# 
   767     0692                     	;# 
   768     0693                     	;# 
   769     0694                     	;# 
   770     0695                     	;# 
   771     0F0F                     	;# 
   772     0F10                     	;# 
   773     0F11                     	;# 
   774     0F12                     	;# 
   775     0F13                     	;# 
   776     0F14                     	;# 
   777     0F15                     	;# 
   778     0F16                     	;# 
   779     0F17                     	;# 
   780     0F18                     	;# 
   781     0F19                     	;# 
   782     0F1A                     	;# 
   783     0F1B                     	;# 
   784     0F1C                     	;# 
   785     0F1D                     	;# 
   786     0F1E                     	;# 
   787     0F1F                     	;# 
   788     0FE3                     	;# 
   789     0FE4                     	;# 
   790     0FE5                     	;# 
   791     0FE6                     	;# 
   792     0FE7                     	;# 
   793     0FE8                     	;# 
   794     0FE9                     	;# 
   795     0FEA                     	;# 
   796     0FEB                     	;# 
   797     0FED                     	;# 
   798     0FEE                     	;# 
   799     0FEF                     	;# 
   800                           
   801                           	psect	idataBANK0
   802     002D                     __pidataBANK0:
   803                           
   804                           ;initializer for main@F2943
   805     002D  3400               	retlw	0
   806     002E  34AF               	retlw	175
   807                           
   808                           	psect	stringtext1
   809     0615                     __pstringtext1:
   810     0615                     _font_5x8:
   811     0615  3400               	retlw	0
   812     0616  3400               	retlw	0
   813     0617  3400               	retlw	0
   814     0618  3400               	retlw	0
   815     0619  3400               	retlw	0
   816     061A  3400               	retlw	0
   817     061B  3400               	retlw	0
   818     061C  3400               	retlw	0
   819     061D  3400               	retlw	0
   820     061E  3400               	retlw	0
   821     061F  345F               	retlw	95
   822     0620  3400               	retlw	0
   823     0621  3400               	retlw	0
   824     0622  3400               	retlw	0
   825     0623  3400               	retlw	0
   826     0624  3400               	retlw	0
   827     0625  3407               	retlw	7
   828     0626  3400               	retlw	0
   829     0627  3407               	retlw	7
   830     0628  3400               	retlw	0
   831     0629  3400               	retlw	0
   832     062A  3400               	retlw	0
   833     062B  3414               	retlw	20
   834     062C  347F               	retlw	127
   835     062D  3414               	retlw	20
   836     062E  347F               	retlw	127
   837     062F  3414               	retlw	20
   838     0630  3400               	retlw	0
   839     0631  3400               	retlw	0
   840     0632  3424               	retlw	36
   841     0633  342A               	retlw	42
   842     0634  347F               	retlw	127
   843     0635  342A               	retlw	42
   844     0636  3412               	retlw	18
   845     0637  3400               	retlw	0
   846     0638  3400               	retlw	0
   847     0639  3423               	retlw	35
   848     063A  3413               	retlw	19
   849     063B  3408               	retlw	8
   850     063C  3464               	retlw	100
   851     063D  3462               	retlw	98
   852     063E  3400               	retlw	0
   853     063F  3400               	retlw	0
   854     0640  3436               	retlw	54
   855     0641  3449               	retlw	73
   856     0642  3455               	retlw	85
   857     0643  3422               	retlw	34
   858     0644  3450               	retlw	80
   859     0645  3400               	retlw	0
   860     0646  3400               	retlw	0
   861     0647  3400               	retlw	0
   862     0648  3405               	retlw	5
   863     0649  3403               	retlw	3
   864     064A  3400               	retlw	0
   865     064B  3400               	retlw	0
   866     064C  3400               	retlw	0
   867     064D  3400               	retlw	0
   868     064E  3400               	retlw	0
   869     064F  341C               	retlw	28
   870     0650  3422               	retlw	34
   871     0651  3441               	retlw	65
   872     0652  3400               	retlw	0
   873     0653  3400               	retlw	0
   874     0654  3400               	retlw	0
   875     0655  3400               	retlw	0
   876     0656  3441               	retlw	65
   877     0657  3422               	retlw	34
   878     0658  341C               	retlw	28
   879     0659  3400               	retlw	0
   880     065A  3400               	retlw	0
   881     065B  3400               	retlw	0
   882     065C  3414               	retlw	20
   883     065D  3408               	retlw	8
   884     065E  343E               	retlw	62
   885     065F  3408               	retlw	8
   886     0660  3414               	retlw	20
   887     0661  3400               	retlw	0
   888     0662  3400               	retlw	0
   889     0663  3408               	retlw	8
   890     0664  3408               	retlw	8
   891     0665  343E               	retlw	62
   892     0666  3408               	retlw	8
   893     0667  3408               	retlw	8
   894     0668  3400               	retlw	0
   895     0669  3400               	retlw	0
   896     066A  3400               	retlw	0
   897     066B  3450               	retlw	80
   898     066C  3430               	retlw	48
   899     066D  3400               	retlw	0
   900     066E  3400               	retlw	0
   901     066F  3400               	retlw	0
   902     0670  3400               	retlw	0
   903     0671  3408               	retlw	8
   904     0672  3408               	retlw	8
   905     0673  3408               	retlw	8
   906     0674  3408               	retlw	8
   907     0675  3408               	retlw	8
   908     0676  3400               	retlw	0
   909     0677  3400               	retlw	0
   910     0678  3400               	retlw	0
   911     0679  3460               	retlw	96
   912     067A  3460               	retlw	96
   913     067B  3400               	retlw	0
   914     067C  3400               	retlw	0
   915     067D  3400               	retlw	0
   916     067E  3400               	retlw	0
   917     067F  3420               	retlw	32
   918     0680  3410               	retlw	16
   919     0681  3408               	retlw	8
   920     0682  3404               	retlw	4
   921     0683  3402               	retlw	2
   922     0684  3400               	retlw	0
   923     0685  3400               	retlw	0
   924     0686  343E               	retlw	62
   925     0687  3451               	retlw	81
   926     0688  3449               	retlw	73
   927     0689  3445               	retlw	69
   928     068A  343E               	retlw	62
   929     068B  3400               	retlw	0
   930     068C  3400               	retlw	0
   931     068D  3400               	retlw	0
   932     068E  3442               	retlw	66
   933     068F  347F               	retlw	127
   934     0690  3440               	retlw	64
   935     0691  3400               	retlw	0
   936     0692  3400               	retlw	0
   937     0693  3400               	retlw	0
   938     0694  3442               	retlw	66
   939     0695  3461               	retlw	97
   940     0696  3451               	retlw	81
   941     0697  3449               	retlw	73
   942     0698  3446               	retlw	70
   943     0699  3400               	retlw	0
   944     069A  3400               	retlw	0
   945     069B  3421               	retlw	33
   946     069C  3441               	retlw	65
   947     069D  3445               	retlw	69
   948     069E  344B               	retlw	75
   949     069F  3431               	retlw	49
   950     06A0  3400               	retlw	0
   951     06A1  3400               	retlw	0
   952     06A2  3418               	retlw	24
   953     06A3  3414               	retlw	20
   954     06A4  3412               	retlw	18
   955     06A5  347F               	retlw	127
   956     06A6  3410               	retlw	16
   957     06A7  3400               	retlw	0
   958     06A8  3400               	retlw	0
   959     06A9  3427               	retlw	39
   960     06AA  3445               	retlw	69
   961     06AB  3445               	retlw	69
   962     06AC  3445               	retlw	69
   963     06AD  3439               	retlw	57
   964     06AE  3400               	retlw	0
   965     06AF  3400               	retlw	0
   966     06B0  343C               	retlw	60
   967     06B1  344A               	retlw	74
   968     06B2  3449               	retlw	73
   969     06B3  3449               	retlw	73
   970     06B4  3430               	retlw	48
   971     06B5  3400               	retlw	0
   972     06B6  3400               	retlw	0
   973     06B7  3401               	retlw	1
   974     06B8  3471               	retlw	113
   975     06B9  3409               	retlw	9
   976     06BA  3405               	retlw	5
   977     06BB  3403               	retlw	3
   978     06BC  3400               	retlw	0
   979     06BD  3400               	retlw	0
   980     06BE  3436               	retlw	54
   981     06BF  3449               	retlw	73
   982     06C0  3449               	retlw	73
   983     06C1  3449               	retlw	73
   984     06C2  3436               	retlw	54
   985     06C3  3400               	retlw	0
   986     06C4  3400               	retlw	0
   987     06C5  3406               	retlw	6
   988     06C6  3449               	retlw	73
   989     06C7  3449               	retlw	73
   990     06C8  3429               	retlw	41
   991     06C9  341E               	retlw	30
   992     06CA  3400               	retlw	0
   993     06CB  3400               	retlw	0
   994     06CC  3400               	retlw	0
   995     06CD  3436               	retlw	54
   996     06CE  3436               	retlw	54
   997     06CF  3400               	retlw	0
   998     06D0  3400               	retlw	0
   999     06D1  3400               	retlw	0
  1000     06D2  3400               	retlw	0
  1001     06D3  3400               	retlw	0
  1002     06D4  3456               	retlw	86
  1003     06D5  3436               	retlw	54
  1004     06D6  3400               	retlw	0
  1005     06D7  3400               	retlw	0
  1006     06D8  3400               	retlw	0
  1007     06D9  3400               	retlw	0
  1008     06DA  3408               	retlw	8
  1009     06DB  3414               	retlw	20
  1010     06DC  3422               	retlw	34
  1011     06DD  3441               	retlw	65
  1012     06DE  3400               	retlw	0
  1013     06DF  3400               	retlw	0
  1014     06E0  3400               	retlw	0
  1015     06E1  3414               	retlw	20
  1016     06E2  3414               	retlw	20
  1017     06E3  3414               	retlw	20
  1018     06E4  3414               	retlw	20
  1019     06E5  3414               	retlw	20
  1020     06E6  3400               	retlw	0
  1021     06E7  3400               	retlw	0
  1022     06E8  3400               	retlw	0
  1023     06E9  3441               	retlw	65
  1024     06EA  3422               	retlw	34
  1025     06EB  3414               	retlw	20
  1026     06EC  3408               	retlw	8
  1027     06ED  3400               	retlw	0
  1028     06EE  3400               	retlw	0
  1029     06EF  3402               	retlw	2
  1030     06F0  3401               	retlw	1
  1031     06F1  3451               	retlw	81
  1032     06F2  3409               	retlw	9
  1033     06F3  3406               	retlw	6
  1034     06F4  3400               	retlw	0
  1035     06F5  3400               	retlw	0
  1036     06F6  3432               	retlw	50
  1037     06F7  3449               	retlw	73
  1038     06F8  3479               	retlw	121
  1039     06F9  3441               	retlw	65
  1040     06FA  343E               	retlw	62
  1041     06FB  3400               	retlw	0
  1042     06FC  3400               	retlw	0
  1043     06FD  347E               	retlw	126
  1044     06FE  3411               	retlw	17
  1045     06FF  3411               	retlw	17
  1046     0700  3411               	retlw	17
  1047     0701  347E               	retlw	126
  1048     0702  3400               	retlw	0
  1049     0703  3400               	retlw	0
  1050     0704  347F               	retlw	127
  1051     0705  3449               	retlw	73
  1052     0706  3449               	retlw	73
  1053     0707  3449               	retlw	73
  1054     0708  3436               	retlw	54
  1055     0709  3400               	retlw	0
  1056     070A  3400               	retlw	0
  1057     070B  343E               	retlw	62
  1058     070C  3441               	retlw	65
  1059     070D  3441               	retlw	65
  1060     070E  3441               	retlw	65
  1061     070F  3422               	retlw	34
  1062     0710  3400               	retlw	0
  1063     0711  3400               	retlw	0
  1064     0712  347F               	retlw	127
  1065     0713  3441               	retlw	65
  1066     0714  3441               	retlw	65
  1067     0715  3422               	retlw	34
  1068     0716  341C               	retlw	28
  1069     0717  3400               	retlw	0
  1070     0718  3400               	retlw	0
  1071     0719  347F               	retlw	127
  1072     071A  3449               	retlw	73
  1073     071B  3449               	retlw	73
  1074     071C  3449               	retlw	73
  1075     071D  3441               	retlw	65
  1076     071E  3400               	retlw	0
  1077     071F  3400               	retlw	0
  1078     0720  347F               	retlw	127
  1079     0721  3409               	retlw	9
  1080     0722  3409               	retlw	9
  1081     0723  3409               	retlw	9
  1082     0724  3401               	retlw	1
  1083     0725  3400               	retlw	0
  1084     0726  3400               	retlw	0
  1085     0727  343E               	retlw	62
  1086     0728  3441               	retlw	65
  1087     0729  3449               	retlw	73
  1088     072A  3449               	retlw	73
  1089     072B  347A               	retlw	122
  1090     072C  3400               	retlw	0
  1091     072D  3400               	retlw	0
  1092     072E  347F               	retlw	127
  1093     072F  3408               	retlw	8
  1094     0730  3408               	retlw	8
  1095     0731  3408               	retlw	8
  1096     0732  347F               	retlw	127
  1097     0733  3400               	retlw	0
  1098     0734  3400               	retlw	0
  1099     0735  3400               	retlw	0
  1100     0736  3441               	retlw	65
  1101     0737  347F               	retlw	127
  1102     0738  3441               	retlw	65
  1103     0739  3400               	retlw	0
  1104     073A  3400               	retlw	0
  1105     073B  3400               	retlw	0
  1106     073C  3420               	retlw	32
  1107     073D  3440               	retlw	64
  1108     073E  3441               	retlw	65
  1109     073F  343F               	retlw	63
  1110     0740  3401               	retlw	1
  1111     0741  3400               	retlw	0
  1112     0742  3400               	retlw	0
  1113     0743  347F               	retlw	127
  1114     0744  3408               	retlw	8
  1115     0745  3414               	retlw	20
  1116     0746  3422               	retlw	34
  1117     0747  3441               	retlw	65
  1118     0748  3400               	retlw	0
  1119     0749  3400               	retlw	0
  1120     074A  347F               	retlw	127
  1121     074B  3440               	retlw	64
  1122     074C  3440               	retlw	64
  1123     074D  3440               	retlw	64
  1124     074E  3440               	retlw	64
  1125     074F  3400               	retlw	0
  1126     0750  3400               	retlw	0
  1127     0751  347F               	retlw	127
  1128     0752  3402               	retlw	2
  1129     0753  340C               	retlw	12
  1130     0754  3402               	retlw	2
  1131     0755  347F               	retlw	127
  1132     0756  3400               	retlw	0
  1133     0757  3400               	retlw	0
  1134     0758  347F               	retlw	127
  1135     0759  3404               	retlw	4
  1136     075A  3408               	retlw	8
  1137     075B  3410               	retlw	16
  1138     075C  347F               	retlw	127
  1139     075D  3400               	retlw	0
  1140     075E  3400               	retlw	0
  1141     075F  343E               	retlw	62
  1142     0760  3441               	retlw	65
  1143     0761  3441               	retlw	65
  1144     0762  3441               	retlw	65
  1145     0763  343E               	retlw	62
  1146     0764  3400               	retlw	0
  1147     0765  3400               	retlw	0
  1148     0766  347F               	retlw	127
  1149     0767  3409               	retlw	9
  1150     0768  3409               	retlw	9
  1151     0769  3409               	retlw	9
  1152     076A  3406               	retlw	6
  1153     076B  3400               	retlw	0
  1154     076C  3400               	retlw	0
  1155     076D  343E               	retlw	62
  1156     076E  3441               	retlw	65
  1157     076F  3451               	retlw	81
  1158     0770  3421               	retlw	33
  1159     0771  345E               	retlw	94
  1160     0772  3400               	retlw	0
  1161     0773  3400               	retlw	0
  1162     0774  347F               	retlw	127
  1163     0775  3409               	retlw	9
  1164     0776  3419               	retlw	25
  1165     0777  3429               	retlw	41
  1166     0778  3446               	retlw	70
  1167     0779  3400               	retlw	0
  1168     077A  3400               	retlw	0
  1169     077B  3446               	retlw	70
  1170     077C  3449               	retlw	73
  1171     077D  3449               	retlw	73
  1172     077E  3449               	retlw	73
  1173     077F  3431               	retlw	49
  1174     0780  3400               	retlw	0
  1175     0781  3400               	retlw	0
  1176     0782  3401               	retlw	1
  1177     0783  3401               	retlw	1
  1178     0784  347F               	retlw	127
  1179     0785  3401               	retlw	1
  1180     0786  3401               	retlw	1
  1181     0787  3400               	retlw	0
  1182     0788  3400               	retlw	0
  1183     0789  343F               	retlw	63
  1184     078A  3440               	retlw	64
  1185     078B  3440               	retlw	64
  1186     078C  3440               	retlw	64
  1187     078D  343F               	retlw	63
  1188     078E  3400               	retlw	0
  1189     078F  3400               	retlw	0
  1190     0790  341F               	retlw	31
  1191     0791  3420               	retlw	32
  1192     0792  3440               	retlw	64
  1193     0793  3420               	retlw	32
  1194     0794  341F               	retlw	31
  1195     0795  3400               	retlw	0
  1196     0796  3400               	retlw	0
  1197     0797  343F               	retlw	63
  1198     0798  3440               	retlw	64
  1199     0799  3438               	retlw	56
  1200     079A  3440               	retlw	64
  1201     079B  343F               	retlw	63
  1202     079C  3400               	retlw	0
  1203     079D  3400               	retlw	0
  1204     079E  3463               	retlw	99
  1205     079F  3414               	retlw	20
  1206     07A0  3408               	retlw	8
  1207     07A1  3414               	retlw	20
  1208     07A2  3463               	retlw	99
  1209     07A3  3400               	retlw	0
  1210     07A4  3400               	retlw	0
  1211     07A5  3407               	retlw	7
  1212     07A6  3408               	retlw	8
  1213     07A7  3470               	retlw	112
  1214     07A8  3408               	retlw	8
  1215     07A9  3407               	retlw	7
  1216     07AA  3400               	retlw	0
  1217     07AB  3400               	retlw	0
  1218     07AC  3461               	retlw	97
  1219     07AD  3451               	retlw	81
  1220     07AE  3449               	retlw	73
  1221     07AF  3445               	retlw	69
  1222     07B0  3443               	retlw	67
  1223     07B1  3400               	retlw	0
  1224     07B2  3400               	retlw	0
  1225     07B3  3400               	retlw	0
  1226     07B4  347F               	retlw	127
  1227     07B5  3441               	retlw	65
  1228     07B6  3441               	retlw	65
  1229     07B7  3400               	retlw	0
  1230     07B8  3400               	retlw	0
  1231     07B9  3400               	retlw	0
  1232     07BA  3402               	retlw	2
  1233     07BB  3404               	retlw	4
  1234     07BC  3408               	retlw	8
  1235     07BD  3410               	retlw	16
  1236     07BE  3420               	retlw	32
  1237     07BF  3400               	retlw	0
  1238     07C0  3400               	retlw	0
  1239     07C1  3400               	retlw	0
  1240     07C2  3441               	retlw	65
  1241     07C3  3441               	retlw	65
  1242     07C4  347F               	retlw	127
  1243     07C5  3400               	retlw	0
  1244     07C6  3400               	retlw	0
  1245     07C7  3400               	retlw	0
  1246     07C8  3404               	retlw	4
  1247     07C9  3402               	retlw	2
  1248     07CA  3401               	retlw	1
  1249     07CB  3402               	retlw	2
  1250     07CC  3404               	retlw	4
  1251     07CD  3400               	retlw	0
  1252     07CE  3400               	retlw	0
  1253     07CF  3440               	retlw	64
  1254     07D0  3440               	retlw	64
  1255     07D1  3440               	retlw	64
  1256     07D2  3440               	retlw	64
  1257     07D3  3440               	retlw	64
  1258     07D4  3400               	retlw	0
  1259     07D5  3400               	retlw	0
  1260     07D6  3400               	retlw	0
  1261     07D7  3401               	retlw	1
  1262     07D8  3402               	retlw	2
  1263     07D9  3404               	retlw	4
  1264     07DA  3400               	retlw	0
  1265     07DB  3400               	retlw	0
  1266     07DC                     __end_of_font_5x8:
  1267     0011                     _PIR1bits	set	17
  1268     009B                     _ADRESL	set	155
  1269     009C                     _ADRESH	set	156
  1270     009E                     _ADCON1bits	set	158
  1271     009D                     _ADCON0bits	set	157
  1272     009A                     _OSCSTATbits	set	154
  1273     0099                     _OSCCONbits	set	153
  1274     0091                     _PIE1bits	set	145
  1275     008E                     _TRISCbits	set	142
  1276     010E                     _LATCbits	set	270
  1277     018E                     _ANSELCbits	set	398
  1278     0211                     _SSP1BUF	set	529
  1279     0216                     _SSP1CON2bits	set	534
  1280     0216                     _SSP1CON2	set	534
  1281     0214                     _SSP1STATbits	set	532
  1282     0212                     _SSP1ADD	set	530
  1283     0215                     _SSP1CON1bits	set	533
  1284     0214                     _SSPSTATbits	set	532
  1285     0217                     _SSPCON3	set	535
  1286     0216                     _SSPCON2	set	534
  1287     0214                     _SSP1STAT	set	532
  1288     0215                     _SSPCON1	set	533
  1289     07DC                     STR_1:
  1290     07DC  3441               	retlw	65	;'A'
  1291     07DD  3444               	retlw	68	;'D'
  1292     07DE  3443               	retlw	67	;'C'
  1293     07DF  3420               	retlw	32	;' '
  1294     07E0  343D               	retlw	61	;'='
  1295     07E1  3420               	retlw	32	;' '
  1296     07E2  3425               	retlw	37	;'%'
  1297     07E3  3468               	retlw	104	;'h'
  1298     07E4  3475               	retlw	117	;'u'
  1299     07E5  3400               	retlw	0
  1300                           
  1301                           	psect	stringtext2
  1302     0045                     __pstringtext2:
  1303     0045                     STR_2:
  1304     0045  344D               	retlw	77	;'M'
  1305     0046  3456               	retlw	86	;'V'
  1306     0047  3420               	retlw	32	;' '
  1307     0048  343D               	retlw	61	;'='
  1308     0049  3420               	retlw	32	;' '
  1309     004A  3425               	retlw	37	;'%'
  1310     004B  3468               	retlw	104	;'h'
  1311     004C  3475               	retlw	117	;'u'
  1312     004D  3400               	retlw	0
  1313                           
  1314                           	psect	stringtext3
  1315     0000                     __pstringtext3:
  1316                           
  1317                           	psect	cinit
  1318     07E6                     start_initialization:	
  1319                           ; #config settings
  1320                           
  1321     07E6                     __initialization:
  1322                           
  1323                           ; Initialize objects allocated to BANK0
  1324     07E6  3180  202D  3187   	fcall	__pidataBANK0	;fetch initializer
  1325     07E9  00E2               	movwf	__pdataBANK0& (0+127)
  1326     07EA  3180  202E  3187   	fcall	__pidataBANK0+1	;fetch initializer
  1327     07ED  00E3               	movwf	(__pdataBANK0+1)& (0+127)
  1328                           
  1329                           ; Clear objects allocated to BANK0
  1330     07EE  305B               	movlw	low __pbssBANK0
  1331     07EF  0084               	movwf	4
  1332     07F0  3000               	movlw	high __pbssBANK0
  1333     07F1  0085               	movwf	5
  1334     07F2  3007               	movlw	7
  1335     07F3  3180  202F  3187   	fcall	clear_ram0
  1336                           
  1337                           ; Clear objects allocated to BANK1
  1338     07F6  30A0               	movlw	low __pbssBANK1
  1339     07F7  0084               	movwf	4
  1340     07F8  3000               	movlw	high __pbssBANK1
  1341     07F9  0085               	movwf	5
  1342     07FA  3020               	movlw	32
  1343     07FB  3180  202F  3187   	fcall	clear_ram0
  1344     07FE                     end_of_initialization:	
  1345                           ;End of C runtime variable initialization code
  1346                           
  1347     07FE                     __end_of__initialization:
  1348     07FE  0020               	movlb	0
  1349     07FF  2C62               	ljmp	_main	;jump to C main() function
  1350                           
  1351                           	psect	bssBANK0
  1352     005B                     __pbssBANK0:
  1353     005B                     _width:
  1354     005B                     	ds	2
  1355     005D                     _prec:
  1356     005D                     	ds	2
  1357     005F                     _flags:
  1358     005F                     	ds	1
  1359     0060                     _ssd1306_current_page:
  1360     0060                     	ds	1
  1361     0061                     _ssd1306_current_col:
  1362     0061                     	ds	1
  1363                           
  1364                           	psect	dataBANK0
  1365     0062                     __pdataBANK0:
  1366     0062                     main@F2943:
  1367     0062                     	ds	2
  1368                           
  1369                           	psect	bssBANK1
  1370     00A0                     __pbssBANK1:
  1371     00A0                     _dbuf:
  1372     00A0                     	ds	32
  1373                           
  1374                           	psect	clrtext
  1375     002F                     clear_ram0:	
  1376                           ;	Called with FSR0 containing the base address, and
  1377                           ;	WREG with the size to clear
  1378                           
  1379     002F  0064               	clrwdt	;clear the watchdog before getting into this loop
  1380     0030                     clrloop0:
  1381     0030  0180               	clrf	0	;clear RAM location pointed to by FSR
  1382     0031  3101               	addfsr 0,1
  1383     0032  0B89               	decfsz	9,f	;Have we reached the end of clearing yet?
  1384     0033  2830               	goto	clrloop0	;have we reached the end yet?
  1385     0034  3400               	retlw	0	;all done for this memory range, return
  1386                           
  1387                           	psect	cstackCOMMON
  1388     0070                     __pcstackCOMMON:
  1389     0070                     ?_set_osc_freq:
  1390     0070                     ??_set_osc_freq:	
  1391                           ; 1 bytes @ 0x0
  1392                           
  1393     0070                     ?_ssd1306_init:	
  1394                           ; 1 bytes @ 0x0
  1395                           
  1396     0070                     ?_ssd1306_Print_String:	
  1397                           ; 1 bytes @ 0x0
  1398                           
  1399     0070                     ?_ssd1306_command:	
  1400                           ; 1 bytes @ 0x0
  1401                           
  1402     0070                     ?_ssd1306_clear_refresh:	
  1403                           ; 1 bytes @ 0x0
  1404                           
  1405     0070                     ?_putch:	
  1406                           ; 1 bytes @ 0x0
  1407                           
  1408     0070                     ??_putch:	
  1409                           ; 1 bytes @ 0x0
  1410                           
  1411     0070                     ?_delay:	
  1412                           ; 1 bytes @ 0x0
  1413                           
  1414     0070                     ?_I2C_begin_transmission:	
  1415                           ; 1 bytes @ 0x0
  1416                           
  1417     0070                     ??_I2C_begin_transmission:	
  1418                           ; 1 bytes @ 0x0
  1419                           
  1420     0070                     ?_I2C_stop_transmission:	
  1421                           ; 1 bytes @ 0x0
  1422                           
  1423     0070                     ??_I2C_stop_transmission:	
  1424                           ; 1 bytes @ 0x0
  1425                           
  1426     0070                     ?_I2C_set_address:	
  1427                           ; 1 bytes @ 0x0
  1428                           
  1429     0070                     ?_I2C_transmit_data:	
  1430                           ; 1 bytes @ 0x0
  1431                           
  1432     0070                     ??_I2C_transmit_data:	
  1433                           ; 1 bytes @ 0x0
  1434                           
  1435     0070                     ?_ssd1306_data:	
  1436                           ; 1 bytes @ 0x0
  1437                           
  1438     0070                     ?_adc_read:	
  1439                           ; 1 bytes @ 0x0
  1440                           
  1441     0070                     ?_fputc:	
  1442                           ; 2 bytes @ 0x0
  1443                           
  1444     0070                     ?_main:	
  1445                           ; 2 bytes @ 0x0
  1446                           
  1447     0070                     ?___wmul:	
  1448                           ; 2 bytes @ 0x0
  1449                           
  1450     0070                     ?___lwdiv:	
  1451                           ; 2 bytes @ 0x0
  1452                           
  1453     0070                     ?___lwmod:	
  1454                           ; 2 bytes @ 0x0
  1455                           
  1456     0070                     ?___lmul:	
  1457                           ; 2 bytes @ 0x0
  1458                           
  1459     0070                     I2C_set_address@read_write_flag:	
  1460                           ; 4 bytes @ 0x0
  1461                           
  1462     0070                     set_osc_freq@freq:	
  1463                           ; 1 bytes @ 0x0
  1464                           
  1465     0070                     putch@c:	
  1466                           ; 1 bytes @ 0x0
  1467                           
  1468     0070                     ___wmul@multiplier:	
  1469                           ; 1 bytes @ 0x0
  1470                           
  1471     0070                     ___lwdiv@divisor:	
  1472                           ; 2 bytes @ 0x0
  1473                           
  1474     0070                     ___lwmod@divisor:	
  1475                           ; 2 bytes @ 0x0
  1476                           
  1477     0070                     fputc@c:	
  1478                           ; 2 bytes @ 0x0
  1479                           
  1480     0070                     delay@val:	
  1481                           ; 2 bytes @ 0x0
  1482                           
  1483     0070                     ___lmul@multiplier:	
  1484                           ; 4 bytes @ 0x0
  1485                           
  1486                           
  1487                           ; 4 bytes @ 0x0
  1488     0070                     	ds	1
  1489     0071                     ??_I2C_set_address:
  1490     0071                     I2C_transmit_data@data:	
  1491                           ; 1 bytes @ 0x1
  1492                           
  1493     0071                     set_osc_freq@frequency:	
  1494                           ; 1 bytes @ 0x1
  1495                           
  1496                           
  1497                           ; 1 bytes @ 0x1
  1498     0071                     	ds	1
  1499     0072                     ??_adc_read:
  1500     0072                     I2C_set_address@address:	
  1501                           ; 1 bytes @ 0x2
  1502                           
  1503     0072                     fputc@fp:	
  1504                           ; 1 bytes @ 0x2
  1505                           
  1506     0072                     ___wmul@multiplicand:	
  1507                           ; 1 bytes @ 0x2
  1508                           
  1509     0072                     ___lwdiv@dividend:	
  1510                           ; 2 bytes @ 0x2
  1511                           
  1512     0072                     ___lwmod@dividend:	
  1513                           ; 2 bytes @ 0x2
  1514                           
  1515                           
  1516                           ; 2 bytes @ 0x2
  1517     0072                     	ds	1
  1518     0073                     ??_fputc:
  1519     0073                     ?_I2C_write_memory:	
  1520                           ; 1 bytes @ 0x3
  1521                           
  1522     0073                     I2C_write_memory@memory_addr:	
  1523                           ; 1 bytes @ 0x3
  1524                           
  1525                           
  1526                           ; 1 bytes @ 0x3
  1527     0073                     	ds	1
  1528     0074                     ??_delay:
  1529     0074                     ??___wmul:	
  1530                           ; 1 bytes @ 0x4
  1531                           
  1532     0074                     ??___lwdiv:	
  1533                           ; 1 bytes @ 0x4
  1534                           
  1535     0074                     ??___lwmod:	
  1536                           ; 1 bytes @ 0x4
  1537                           
  1538     0074                     I2C_write_memory@data:	
  1539                           ; 1 bytes @ 0x4
  1540                           
  1541     0074                     adc_read@data:	
  1542                           ; 1 bytes @ 0x4
  1543                           
  1544     0074                     ___wmul@product:	
  1545                           ; 2 bytes @ 0x4
  1546                           
  1547     0074                     ___lmul@multiplicand:	
  1548                           ; 2 bytes @ 0x4
  1549                           
  1550                           
  1551                           ; 4 bytes @ 0x4
  1552     0074                     	ds	1
  1553     0075                     ??_I2C_write_memory:
  1554     0075                     I2C_write_memory@slave_addr:	
  1555                           ; 1 bytes @ 0x5
  1556                           
  1557     0075                     ___lwmod@counter:	
  1558                           ; 1 bytes @ 0x5
  1559                           
  1560     0075                     ___lwdiv@quotient:	
  1561                           ; 1 bytes @ 0x5
  1562                           
  1563                           
  1564                           ; 2 bytes @ 0x5
  1565     0075                     	ds	1
  1566     0076                     ??_ssd1306_command:
  1567     0076                     ??_ssd1306_data:	
  1568                           ; 1 bytes @ 0x6
  1569                           
  1570     0076                     ssd1306_command@command:	
  1571                           ; 1 bytes @ 0x6
  1572                           
  1573     0076                     ssd1306_data@data:	
  1574                           ; 1 bytes @ 0x6
  1575                           
  1576                           
  1577                           ; 1 bytes @ 0x6
  1578     0076                     	ds	1
  1579     0077                     ?_ssd1306_setcursor:
  1580     0077                     ??_ssd1306_Print_String:	
  1581                           ; 1 bytes @ 0x7
  1582                           
  1583     0077                     ??_ssd1306_clear_refresh:	
  1584                           ; 1 bytes @ 0x7
  1585                           
  1586     0077                     ssd1306_setcursor@column:	
  1587                           ; 1 bytes @ 0x7
  1588                           
  1589     0077                     ___lwdiv@counter:	
  1590                           ; 1 bytes @ 0x7
  1591                           
  1592     0077                     ssd1306_clear_refresh@i:	
  1593                           ; 1 bytes @ 0x7
  1594                           
  1595                           
  1596                           ; 2 bytes @ 0x7
  1597     0077                     	ds	1
  1598     0078                     ?_I2C_init:
  1599     0078                     ??_ssd1306_setcursor:	
  1600                           ; 1 bytes @ 0x8
  1601                           
  1602     0078                     ??___lmul:	
  1603                           ; 1 bytes @ 0x8
  1604                           
  1605     0078                     ?_vfpfcnvrt:	
  1606                           ; 1 bytes @ 0x8
  1607                           
  1608     0078                     ssd1306_setcursor@page:	
  1609                           ; 1 bytes @ 0x8
  1610                           
  1611     0078                     vfpfcnvrt@fmt:	
  1612                           ; 1 bytes @ 0x8
  1613                           
  1614     0078                     I2C_init@I2C_frequency_KHz:	
  1615                           ; 1 bytes @ 0x8
  1616                           
  1617     0078                     ___lmul@product:	
  1618                           ; 2 bytes @ 0x8
  1619                           
  1620                           
  1621                           ; 4 bytes @ 0x8
  1622     0078                     	ds	1
  1623     0079                     ??_ssd1306_init:
  1624     0079                     vfpfcnvrt@ap:	
  1625                           ; 1 bytes @ 0x9
  1626                           
  1627                           
  1628                           ; 1 bytes @ 0x9
  1629     0079                     	ds	1
  1630     007A                     ??_I2C_init:
  1631     007A                     ??_vfpfcnvrt:	
  1632                           ; 1 bytes @ 0xA
  1633                           
  1634                           
  1635                           ; 1 bytes @ 0xA
  1636     007A                     	ds	2
  1637     007C                     ??___lldiv:
  1638                           
  1639                           ; 1 bytes @ 0xC
  1640     007C                     	ds	2
  1641     007E                     ??_main:
  1642                           
  1643                           	psect	cstackBANK0
  1644     0020                     __pcstackBANK0:	
  1645                           ; 1 bytes @ 0xE
  1646                           
  1647     0020                     ?___lldiv:
  1648     0020                     ssd1306_Print_String@font_col:	
  1649                           ; 4 bytes @ 0x0
  1650                           
  1651     0020                     vfpfcnvrt@fp:	
  1652                           ; 1 bytes @ 0x0
  1653                           
  1654     0020                     ___lldiv@divisor:	
  1655                           ; 1 bytes @ 0x0
  1656                           
  1657                           
  1658                           ; 4 bytes @ 0x0
  1659     0020                     	ds	1
  1660     0021                     ssd1306_Print_String@str_cnt:
  1661     0021                     vfpfcnvrt@convarg:	
  1662                           ; 2 bytes @ 0x1
  1663                           
  1664                           
  1665                           ; 4 bytes @ 0x1
  1666     0021                     	ds	2
  1667     0023                     ssd1306_Print_String@str:
  1668                           
  1669                           ; 1 bytes @ 0x3
  1670     0023                     	ds	1
  1671     0024                     ___lldiv@dividend:
  1672                           
  1673                           ; 4 bytes @ 0x4
  1674     0024                     	ds	1
  1675     0025                     vfpfcnvrt@cp:
  1676                           
  1677                           ; 2 bytes @ 0x5
  1678     0025                     	ds	2
  1679     0027                     vfpfcnvrt@c:
  1680                           
  1681                           ; 1 bytes @ 0x7
  1682     0027                     	ds	1
  1683     0028                     ?_vfprintf:
  1684     0028                     vfprintf@fmt:	
  1685                           ; 2 bytes @ 0x8
  1686                           
  1687     0028                     ___lldiv@quotient:	
  1688                           ; 2 bytes @ 0x8
  1689                           
  1690                           
  1691                           ; 4 bytes @ 0x8
  1692     0028                     	ds	2
  1693     002A                     vfprintf@ap:
  1694                           
  1695                           ; 1 bytes @ 0xA
  1696     002A                     	ds	1
  1697     002B                     ??_vfprintf:
  1698                           
  1699                           ; 1 bytes @ 0xB
  1700     002B                     	ds	1
  1701     002C                     ___lldiv@counter:
  1702     002C                     vfprintf@fp:	
  1703                           ; 1 bytes @ 0xC
  1704                           
  1705                           
  1706                           ; 1 bytes @ 0xC
  1707     002C                     	ds	1
  1708     002D                     vfprintf@cfmt:
  1709                           
  1710                           ; 2 bytes @ 0xD
  1711     002D                     	ds	2
  1712     002F                     ?_sprintf:
  1713     002F                     sprintf@fmt:	
  1714                           ; 2 bytes @ 0xF
  1715                           
  1716                           
  1717                           ; 2 bytes @ 0xF
  1718     002F                     	ds	4
  1719     0033                     ??_sprintf:
  1720                           
  1721                           ; 1 bytes @ 0x13
  1722     0033                     	ds	1
  1723     0034                     sprintf@ap:
  1724                           
  1725                           ; 1 bytes @ 0x14
  1726     0034                     	ds	1
  1727     0035                     sprintf@s:
  1728                           
  1729                           ; 1 bytes @ 0x15
  1730     0035                     	ds	1
  1731     0036                     sprintf@f:
  1732                           
  1733                           ; 11 bytes @ 0x16
  1734     0036                     	ds	11
  1735     0041                     main@str:
  1736                           
  1737                           ; 20 bytes @ 0x21
  1738     0041                     	ds	20
  1739     0055                     main@data:
  1740                           
  1741                           ; 2 bytes @ 0x35
  1742     0055                     	ds	2
  1743     0057                     main@milli_volt:
  1744                           
  1745                           ; 2 bytes @ 0x37
  1746     0057                     	ds	2
  1747     0059                     main@ADC_data:
  1748                           
  1749                           ; 2 bytes @ 0x39
  1750     0059                     	ds	2
  1751                           
  1752                           	psect	maintext
  1753     0462                     __pmaintext:	
  1754 ;;
  1755 ;;Main: autosize = 0, tempsize = 0, incstack = 0, save=0
  1756 ;;
  1757 ;; *************** function _main *****************
  1758 ;; Defined at:
  1759 ;;		line 38 in file "main.c"
  1760 ;; Parameters:    Size  Location     Type
  1761 ;;		None
  1762 ;; Auto vars:     Size  Location     Type
  1763 ;;  str            20   33[BANK0 ] unsigned char [20]
  1764 ;;  ADC_data        2   57[BANK0 ] volatile unsigned short 
  1765 ;;  milli_volt      2   55[BANK0 ] unsigned short 
  1766 ;;  data            2   53[BANK0 ] unsigned char [2]
  1767 ;;  led             1    0        unsigned char 
  1768 ;;  slaveAddress    1    0        unsigned char 
  1769 ;; Return value:  Size  Location     Type
  1770 ;;                  2   30[None  ] int 
  1771 ;; Registers used:
  1772 ;;		wreg, fsr0l, fsr0h, fsr1l, fsr1h, status,2, status,0, pclath, cstack
  1773 ;; Tracked objects:
  1774 ;;		On entry : B1F/0
  1775 ;;		On exit  : 0/0
  1776 ;;		Unchanged: 0/0
  1777 ;; Data sizes:     COMMON   BANK0   BANK1
  1778 ;;      Params:         0       0       0
  1779 ;;      Locals:         0      26       0
  1780 ;;      Temps:          0       0       0
  1781 ;;      Totals:         0      26       0
  1782 ;;Total ram usage:       26 bytes
  1783 ;; Hardware stack levels required when called: 6
  1784 ;; This function calls:
  1785 ;;		_I2C_init
  1786 ;;		___lldiv
  1787 ;;		___lmul
  1788 ;;		_adc_read
  1789 ;;		_delay
  1790 ;;		_set_osc_freq
  1791 ;;		_sprintf
  1792 ;;		_ssd1306_Print_String
  1793 ;;		_ssd1306_init
  1794 ;;		_ssd1306_setcursor
  1795 ;; This function is called by:
  1796 ;;		Startup code after reset
  1797 ;; This function uses a non-reentrant model
  1798 ;;
  1799                           
  1800     0462                     _main:	
  1801                           ;psect for function _main
  1802                           
  1803     0462                     l1730:	
  1804                           ;incstack = 0
  1805                           ; Regs used in _main: [wreg-fsr1h+status,2+status,0+pclath+cstack]
  1806                           
  1807                           
  1808                           ;main.c: 40:     set_osc_freq(_16MHz);
  1809     0462  300F               	movlw	15
  1810     0463  3180  20AB  3184   	fcall	_set_osc_freq
  1811     0466                     l1732:
  1812                           
  1813                           ;main.c: 42:     uint8_t data[] = {0x00 , 0xAF};
  1814     0466  0020               	movlb	0	; select bank0
  1815     0467  0863               	movf	main@F2943+1,w
  1816     0468  00D6               	movwf	main@data+1
  1817     0469  0862               	movf	main@F2943,w
  1818     046A  00D5               	movwf	main@data
  1819     046B                     l1734:
  1820     046B                     l1736:
  1821     046B                     l1738:
  1822                           
  1823                           ;main.c: 45:     volatile uint16_t ADC_data = 0;
  1824     046B  01D9               	clrf	main@ADC_data	;volatile
  1825     046C  01DA               	clrf	main@ADC_data+1	;volatile
  1826     046D                     l1740:
  1827     046D                     l1742:
  1828                           
  1829                           ;main.c: 47:     uint8_t str[20];;main.c: 49:     TRISCbits.TRISC2 = 0;
  1830     046D  0021               	movlb	1	; select bank1
  1831     046E  110E               	bcf	14,2	;volatile
  1832     046F                     l1744:
  1833                           
  1834                           ;main.c: 50:     ANSELCbits.ANSC2 = 0;
  1835     046F  0023               	movlb	3	; select bank3
  1836     0470  110E               	bcf	14,2	;volatile
  1837     0471                     l1746:
  1838                           
  1839                           ;main.c: 51:     LATCbits.LATC2 = 1;
  1840     0471  0022               	movlb	2	; select bank2
  1841     0472  150E               	bsf	14,2	;volatile
  1842     0473                     l1748:
  1843                           
  1844                           ;main.c: 53:     I2C_init(400U);
  1845     0473  3090               	movlw	144
  1846     0474  00F8               	movwf	I2C_init@I2C_frequency_KHz
  1847     0475  3001               	movlw	1
  1848     0476  00F9               	movwf	I2C_init@I2C_frequency_KHz+1
  1849     0477  3181  219D  3184   	fcall	_I2C_init
  1850     047A                     l1750:
  1851                           
  1852                           ;main.c: 54:     ssd1306_init();
  1853     047A  3183  23D5  3184   	fcall	_ssd1306_init
  1854     047D                     l1752:
  1855                           
  1856                           ;main.c: 57:     {;main.c: 58:         ADC_data = (uint16_t)adc_read();
  1857     047D  3182  2232  3184   	fcall	_adc_read
  1858     0480  0871               	movf	?_adc_read+1,w
  1859     0481  0020               	movlb	0	; select bank0
  1860     0482  00DA               	movwf	main@ADC_data+1	;volatile
  1861     0483  0870               	movf	?_adc_read,w
  1862     0484  00D9               	movwf	main@ADC_data	;volatile
  1863     0485                     l1754:
  1864                           
  1865                           ;main.c: 59:         ADC_data &= 0x03ff;
  1866     0485  30FF               	movlw	255
  1867     0486  05D9               	andwf	main@ADC_data,f	;volatile
  1868     0487  3003               	movlw	3
  1869     0488  05DA               	andwf	main@ADC_data+1,f	;volatile
  1870     0489                     l1756:
  1871                           
  1872                           ;main.c: 63:         ssd1306_setcursor(1,0);
  1873     0489  01F7               	clrf	ssd1306_setcursor@column
  1874     048A  3001               	movlw	1
  1875     048B  3181  2171  3184   	fcall	_ssd1306_setcursor
  1876     048E                     l1758:
  1877                           
  1878                           ;main.c: 64:         sprintf(str,"ADC = %hu",ADC_data);
  1879     048E  30DC               	movlw	low (STR_1| (0+32768))
  1880     048F  0020               	movlb	0	; select bank0
  1881     0490  00AF               	movwf	sprintf@fmt
  1882     0491  3087               	movlw	high (STR_1| (0+32768))
  1883     0492  00B0               	movwf	sprintf@fmt+1
  1884     0493  085A               	movf	main@ADC_data+1,w	;volatile
  1885     0494  00B2               	movwf	?_sprintf+3
  1886     0495  0859               	movf	main@ADC_data,w	;volatile
  1887     0496  00B1               	movwf	?_sprintf+2
  1888     0497  3041               	movlw	(low (main@str| 0))& (0+255)
  1889     0498  3180  20C8  3184   	fcall	_sprintf
  1890     049B                     l1760:
  1891                           
  1892                           ;main.c: 65:         ssd1306_Print_String(str);
  1893     049B  3041               	movlw	(low (main@str| 0))& (0+255)
  1894     049C  3183  2351  3184   	fcall	_ssd1306_Print_String
  1895     049F                     l1762:
  1896                           
  1897                           ;main.c: 68:         ssd1306_setcursor(3,0);
  1898     049F  01F7               	clrf	ssd1306_setcursor@column
  1899     04A0  3003               	movlw	3
  1900     04A1  3181  2171  3184   	fcall	_ssd1306_setcursor
  1901     04A4                     l1764:
  1902                           
  1903                           ;main.c: 69:         milli_volt = (uint16_t)(((uint32_t)ADC_data * (uint32_t)3300)/(uint
      +                          32_t)1023);
  1904     04A4  3000               	movlw	0
  1905     04A5  0020               	movlb	0	; select bank0
  1906     04A6  00A3               	movwf	___lldiv@divisor+3
  1907     04A7  3000               	movlw	0
  1908     04A8  00A2               	movwf	___lldiv@divisor+2
  1909     04A9  3003               	movlw	3
  1910     04AA  00A1               	movwf	___lldiv@divisor+1
  1911     04AB  30FF               	movlw	255
  1912     04AC  00A0               	movwf	___lldiv@divisor
  1913     04AD  0859               	movf	main@ADC_data,w	;volatile
  1914     04AE  00F0               	movwf	___lmul@multiplier
  1915     04AF  085A               	movf	main@ADC_data+1,w	;volatile
  1916     04B0  00F1               	movwf	___lmul@multiplier+1
  1917     04B1  01F2               	clrf	___lmul@multiplier+2
  1918     04B2  01F3               	clrf	___lmul@multiplier+3
  1919     04B3  3000               	movlw	0
  1920     04B4  00F7               	movwf	___lmul@multiplicand+3
  1921     04B5  3000               	movlw	0
  1922     04B6  00F6               	movwf	___lmul@multiplicand+2
  1923     04B7  300C               	movlw	12
  1924     04B8  00F5               	movwf	___lmul@multiplicand+1
  1925     04B9  30E4               	movlw	228
  1926     04BA  00F4               	movwf	___lmul@multiplicand
  1927     04BB  3181  21CB  3184   	fcall	___lmul
  1928     04BE  0873               	movf	?___lmul+3,w
  1929     04BF  0020               	movlb	0	; select bank0
  1930     04C0  00A7               	movwf	___lldiv@dividend+3
  1931     04C1  0872               	movf	?___lmul+2,w
  1932     04C2  00A6               	movwf	___lldiv@dividend+2
  1933     04C3  0871               	movf	?___lmul+1,w
  1934     04C4  00A5               	movwf	___lldiv@dividend+1
  1935     04C5  0870               	movf	?___lmul,w
  1936     04C6  00A4               	movwf	___lldiv@dividend
  1937     04C7  3182  22F6  3184   	fcall	___lldiv
  1938     04CA  0020               	movlb	0	; select bank0
  1939     04CB  0821               	movf	?___lldiv+1,w
  1940     04CC  00D8               	movwf	main@milli_volt+1
  1941     04CD  0820               	movf	?___lldiv,w
  1942     04CE  00D7               	movwf	main@milli_volt
  1943     04CF                     l1766:
  1944                           
  1945                           ;main.c: 70:         sprintf(str,"MV = %hu",milli_volt);
  1946     04CF  3045               	movlw	low (STR_2| (0+32768))
  1947     04D0  00AF               	movwf	sprintf@fmt
  1948     04D1  3080               	movlw	high (STR_2| (0+32768))
  1949     04D2  00B0               	movwf	sprintf@fmt+1
  1950     04D3  0858               	movf	main@milli_volt+1,w
  1951     04D4  00B2               	movwf	?_sprintf+3
  1952     04D5  0857               	movf	main@milli_volt,w
  1953     04D6  00B1               	movwf	?_sprintf+2
  1954     04D7  3041               	movlw	(low (main@str| 0))& (0+255)
  1955     04D8  3180  20C8  3184   	fcall	_sprintf
  1956     04DB                     l1768:
  1957                           
  1958                           ;main.c: 71:         ssd1306_Print_String(str);
  1959     04DB  3041               	movlw	(low (main@str| 0))& (0+255)
  1960     04DC  3183  2351  3184   	fcall	_ssd1306_Print_String
  1961     04DF                     l1770:
  1962                           
  1963                           ;main.c: 75:         delay(10000);
  1964     04DF  3000               	movlw	0
  1965     04E0  00F3               	movwf	delay@val+3
  1966     04E1  3000               	movlw	0
  1967     04E2  00F2               	movwf	delay@val+2
  1968     04E3  3027               	movlw	39
  1969     04E4  00F1               	movwf	delay@val+1
  1970     04E5  3010               	movlw	16
  1971     04E6  00F0               	movwf	delay@val
  1972     04E7  3180  20E5  3184   	fcall	_delay
  1973     04EA                     l1772:
  1974                           
  1975                           ;main.c: 76:         delay(10000);
  1976     04EA  3000               	movlw	0
  1977     04EB  00F3               	movwf	delay@val+3
  1978     04EC  3000               	movlw	0
  1979     04ED  00F2               	movwf	delay@val+2
  1980     04EE  3027               	movlw	39
  1981     04EF  00F1               	movwf	delay@val+1
  1982     04F0  3010               	movlw	16
  1983     04F1  00F0               	movwf	delay@val
  1984     04F2  3180  20E5  3184   	fcall	_delay
  1985     04F5                     l1774:
  1986                           
  1987                           ;main.c: 77:         delay(10000);
  1988     04F5  3000               	movlw	0
  1989     04F6  00F3               	movwf	delay@val+3
  1990     04F7  3000               	movlw	0
  1991     04F8  00F2               	movwf	delay@val+2
  1992     04F9  3027               	movlw	39
  1993     04FA  00F1               	movwf	delay@val+1
  1994     04FB  3010               	movlw	16
  1995     04FC  00F0               	movwf	delay@val
  1996     04FD  3180  20E5  3184   	fcall	_delay
  1997     0500  2C7D               	goto	l1752
  1998     0501  2801               	ljmp	start
  1999     0502                     __end_of_main:
  2000                           
  2001                           	psect	text1
  2002     03D5                     __ptext1:	
  2003 ;; *************** function _ssd1306_init *****************
  2004 ;; Defined at:
  2005 ;;		line 125 in file "C:/Users/saksh/MPLABXProjects/test2.X/ssd1306.c"
  2006 ;; Parameters:    Size  Location     Type
  2007 ;;		None
  2008 ;; Auto vars:     Size  Location     Type
  2009 ;;		None
  2010 ;; Return value:  Size  Location     Type
  2011 ;;                  1    wreg      void 
  2012 ;; Registers used:
  2013 ;;		wreg, status,2, status,0, pclath, cstack
  2014 ;; Tracked objects:
  2015 ;;		On entry : 0/0
  2016 ;;		On exit  : 0/0
  2017 ;;		Unchanged: 0/0
  2018 ;; Data sizes:     COMMON   BANK0   BANK1
  2019 ;;      Params:         0       0       0
  2020 ;;      Locals:         0       0       0
  2021 ;;      Temps:          0       0       0
  2022 ;;      Totals:         0       0       0
  2023 ;;Total ram usage:        0 bytes
  2024 ;; Hardware stack levels used: 1
  2025 ;; Hardware stack levels required when called: 5
  2026 ;; This function calls:
  2027 ;;		_ssd1306_clear_refresh
  2028 ;;		_ssd1306_command
  2029 ;;		_ssd1306_setcursor
  2030 ;; This function is called by:
  2031 ;;		_main
  2032 ;; This function uses a non-reentrant model
  2033 ;;
  2034                           
  2035     03D5                     _ssd1306_init:	
  2036                           ;psect for function _ssd1306_init
  2037                           
  2038     03D5                     l1618:	
  2039                           ;incstack = 0
  2040                           ; Regs used in _ssd1306_init: [wreg+status,2+status,0+pclath+cstack]
  2041                           
  2042                           
  2043                           ;C:/Users/saksh/MPLABXProjects/test2.X/ssd1306.c: 128:   ssd1306_command(0xAE);
  2044     03D5  30AE               	movlw	174
  2045     03D6  3180  203C  3183   	fcall	_ssd1306_command
  2046                           
  2047                           ;C:/Users/saksh/MPLABXProjects/test2.X/ssd1306.c: 130:   ssd1306_command(0xD5);
  2048     03D9  30D5               	movlw	213
  2049     03DA  3180  203C  3183   	fcall	_ssd1306_command
  2050                           
  2051                           ;C:/Users/saksh/MPLABXProjects/test2.X/ssd1306.c: 131:   ssd1306_command(0x80);
  2052     03DD  3080               	movlw	128
  2053     03DE  3180  203C  3183   	fcall	_ssd1306_command
  2054                           
  2055                           ;C:/Users/saksh/MPLABXProjects/test2.X/ssd1306.c: 133:   ssd1306_command(0xA8);
  2056     03E1  30A8               	movlw	168
  2057     03E2  3180  203C  3183   	fcall	_ssd1306_command
  2058                           
  2059                           ;C:/Users/saksh/MPLABXProjects/test2.X/ssd1306.c: 134:   ssd1306_command(0x3F);
  2060     03E5  303F               	movlw	63
  2061     03E6  3180  203C  3183   	fcall	_ssd1306_command
  2062                           
  2063                           ;C:/Users/saksh/MPLABXProjects/test2.X/ssd1306.c: 136:   ssd1306_command(0x20);
  2064     03E9  3020               	movlw	32
  2065     03EA  3180  203C  3183   	fcall	_ssd1306_command
  2066                           
  2067                           ;C:/Users/saksh/MPLABXProjects/test2.X/ssd1306.c: 137:   ssd1306_command(0x00);
  2068     03ED  3000               	movlw	0
  2069     03EE  3180  203C  3183   	fcall	_ssd1306_command
  2070                           
  2071                           ;C:/Users/saksh/MPLABXProjects/test2.X/ssd1306.c: 139:   ssd1306_command(0x21);
  2072     03F1  3021               	movlw	33
  2073     03F2  3180  203C  3183   	fcall	_ssd1306_command
  2074                           
  2075                           ;C:/Users/saksh/MPLABXProjects/test2.X/ssd1306.c: 140:   ssd1306_command(0);
  2076     03F5  3000               	movlw	0
  2077     03F6  3180  203C  3183   	fcall	_ssd1306_command
  2078                           
  2079                           ;C:/Users/saksh/MPLABXProjects/test2.X/ssd1306.c: 141:   ssd1306_command(127);
  2080     03F9  307F               	movlw	127
  2081     03FA  3180  203C  3183   	fcall	_ssd1306_command
  2082                           
  2083                           ;C:/Users/saksh/MPLABXProjects/test2.X/ssd1306.c: 143:   ssd1306_command(0x22);
  2084     03FD  3022               	movlw	34
  2085     03FE  3180  203C  3183   	fcall	_ssd1306_command
  2086                           
  2087                           ;C:/Users/saksh/MPLABXProjects/test2.X/ssd1306.c: 144:   ssd1306_command(0);
  2088     0401  3000               	movlw	0
  2089     0402  3180  203C  3183   	fcall	_ssd1306_command
  2090                           
  2091                           ;C:/Users/saksh/MPLABXProjects/test2.X/ssd1306.c: 145:   ssd1306_command(7);
  2092     0405  3007               	movlw	7
  2093     0406  3180  203C  3183   	fcall	_ssd1306_command
  2094                           
  2095                           ;C:/Users/saksh/MPLABXProjects/test2.X/ssd1306.c: 147:   ssd1306_command(0x40);
  2096     0409  3040               	movlw	64
  2097     040A  3180  203C  3183   	fcall	_ssd1306_command
  2098                           
  2099                           ;C:/Users/saksh/MPLABXProjects/test2.X/ssd1306.c: 149:   ssd1306_command(0xD3);
  2100     040D  30D3               	movlw	211
  2101     040E  3180  203C  3183   	fcall	_ssd1306_command
  2102                           
  2103                           ;C:/Users/saksh/MPLABXProjects/test2.X/ssd1306.c: 150:   ssd1306_command(0x00);
  2104     0411  3000               	movlw	0
  2105     0412  3180  203C  3183   	fcall	_ssd1306_command
  2106                           
  2107                           ;C:/Users/saksh/MPLABXProjects/test2.X/ssd1306.c: 152:   ssd1306_command(0xA1);
  2108     0415  30A1               	movlw	161
  2109     0416  3180  203C  3183   	fcall	_ssd1306_command
  2110                           
  2111                           ;C:/Users/saksh/MPLABXProjects/test2.X/ssd1306.c: 154:   ssd1306_command(0xC8);
  2112     0419  30C8               	movlw	200
  2113     041A  3180  203C  3183   	fcall	_ssd1306_command
  2114                           
  2115                           ;C:/Users/saksh/MPLABXProjects/test2.X/ssd1306.c: 156:   ssd1306_command(0xDA);
  2116     041D  30DA               	movlw	218
  2117     041E  3180  203C  3183   	fcall	_ssd1306_command
  2118                           
  2119                           ;C:/Users/saksh/MPLABXProjects/test2.X/ssd1306.c: 157:   ssd1306_command(0x12);
  2120     0421  3012               	movlw	18
  2121     0422  3180  203C  3183   	fcall	_ssd1306_command
  2122                           
  2123                           ;C:/Users/saksh/MPLABXProjects/test2.X/ssd1306.c: 159:   ssd1306_command(0x81);
  2124     0425  3081               	movlw	129
  2125     0426  3180  203C  3183   	fcall	_ssd1306_command
  2126                           
  2127                           ;C:/Users/saksh/MPLABXProjects/test2.X/ssd1306.c: 160:   ssd1306_command(0x7F);
  2128     0429  307F               	movlw	127
  2129     042A  3180  203C  3183   	fcall	_ssd1306_command
  2130                           
  2131                           ;C:/Users/saksh/MPLABXProjects/test2.X/ssd1306.c: 162:   ssd1306_command(0xA4);
  2132     042D  30A4               	movlw	164
  2133     042E  3180  203C  3183   	fcall	_ssd1306_command
  2134                           
  2135                           ;C:/Users/saksh/MPLABXProjects/test2.X/ssd1306.c: 164:   ssd1306_command(0xA6);
  2136     0431  30A6               	movlw	166
  2137     0432  3180  203C  3183   	fcall	_ssd1306_command
  2138                           
  2139                           ;C:/Users/saksh/MPLABXProjects/test2.X/ssd1306.c: 166:   ssd1306_command(0xD5);
  2140     0435  30D5               	movlw	213
  2141     0436  3180  203C  3183   	fcall	_ssd1306_command
  2142                           
  2143                           ;C:/Users/saksh/MPLABXProjects/test2.X/ssd1306.c: 167:   ssd1306_command(0x80);
  2144     0439  3080               	movlw	128
  2145     043A  3180  203C  3183   	fcall	_ssd1306_command
  2146                           
  2147                           ;C:/Users/saksh/MPLABXProjects/test2.X/ssd1306.c: 169:   ssd1306_command(0xD9);
  2148     043D  30D9               	movlw	217
  2149     043E  3180  203C  3183   	fcall	_ssd1306_command
  2150                           
  2151                           ;C:/Users/saksh/MPLABXProjects/test2.X/ssd1306.c: 170:   ssd1306_command(0xc2);
  2152     0441  30C2               	movlw	194
  2153     0442  3180  203C  3183   	fcall	_ssd1306_command
  2154                           
  2155                           ;C:/Users/saksh/MPLABXProjects/test2.X/ssd1306.c: 172:   ssd1306_command(0xDB);
  2156     0445  30DB               	movlw	219
  2157     0446  3180  203C  3183   	fcall	_ssd1306_command
  2158                           
  2159                           ;C:/Users/saksh/MPLABXProjects/test2.X/ssd1306.c: 173:   ssd1306_command(0x20);
  2160     0449  3020               	movlw	32
  2161     044A  3180  203C  3183   	fcall	_ssd1306_command
  2162                           
  2163                           ;C:/Users/saksh/MPLABXProjects/test2.X/ssd1306.c: 175:   ssd1306_command(0x8D);
  2164     044D  308D               	movlw	141
  2165     044E  3180  203C  3183   	fcall	_ssd1306_command
  2166                           
  2167                           ;C:/Users/saksh/MPLABXProjects/test2.X/ssd1306.c: 176:   ssd1306_command(0x14);
  2168     0451  3014               	movlw	20
  2169     0452  3180  203C  3183   	fcall	_ssd1306_command
  2170                           
  2171                           ;C:/Users/saksh/MPLABXProjects/test2.X/ssd1306.c: 178:   ssd1306_command(0xAF);
  2172     0455  30AF               	movlw	175
  2173     0456  3180  203C  3183   	fcall	_ssd1306_command
  2174                           
  2175                           ;C:/Users/saksh/MPLABXProjects/test2.X/ssd1306.c: 180:   ssd1306_clear_refresh();
  2176     0459  3181  2145  3183   	fcall	_ssd1306_clear_refresh
  2177                           
  2178                           ;C:/Users/saksh/MPLABXProjects/test2.X/ssd1306.c: 182:   ssd1306_setcursor(0, 0);
  2179     045C  01F7               	clrf	ssd1306_setcursor@column
  2180     045D  3000               	movlw	0
  2181     045E  3181  2171  3183   	fcall	_ssd1306_setcursor
  2182     0461                     l145:
  2183     0461  0008               	return
  2184     0462                     __end_of_ssd1306_init:
  2185                           
  2186                           	psect	text2
  2187     0171                     __ptext2:	
  2188 ;; *************** function _ssd1306_setcursor *****************
  2189 ;; Defined at:
  2190 ;;		line 201 in file "C:/Users/saksh/MPLABXProjects/test2.X/ssd1306.c"
  2191 ;; Parameters:    Size  Location     Type
  2192 ;;  page            1    wreg     unsigned char 
  2193 ;;  column          1    7[COMMON] unsigned char 
  2194 ;; Auto vars:     Size  Location     Type
  2195 ;;  page            1    8[COMMON] unsigned char 
  2196 ;; Return value:  Size  Location     Type
  2197 ;;                  1    wreg      void 
  2198 ;; Registers used:
  2199 ;;		wreg, status,2, status,0, pclath, cstack
  2200 ;; Tracked objects:
  2201 ;;		On entry : 0/0
  2202 ;;		On exit  : 0/0
  2203 ;;		Unchanged: 0/0
  2204 ;; Data sizes:     COMMON   BANK0   BANK1
  2205 ;;      Params:         1       0       0
  2206 ;;      Locals:         1       0       0
  2207 ;;      Temps:          0       0       0
  2208 ;;      Totals:         2       0       0
  2209 ;;Total ram usage:        2 bytes
  2210 ;; Hardware stack levels used: 1
  2211 ;; Hardware stack levels required when called: 4
  2212 ;; This function calls:
  2213 ;;		_ssd1306_command
  2214 ;; This function is called by:
  2215 ;;		_main
  2216 ;;		_ssd1306_init
  2217 ;; This function uses a non-reentrant model
  2218 ;;
  2219                           
  2220     0171                     _ssd1306_setcursor:	
  2221                           ;psect for function _ssd1306_setcursor
  2222                           
  2223                           
  2224                           ;incstack = 0
  2225                           ; Regs used in _ssd1306_setcursor: [wreg+status,2+status,0+pclath+cstack]
  2226                           ;ssd1306_setcursor@page stored from wreg
  2227     0171  00F8               	movwf	ssd1306_setcursor@page
  2228     0172                     l1530:
  2229                           
  2230                           ;C:/Users/saksh/MPLABXProjects/test2.X/ssd1306.c: 201: void ssd1306_setcursor(uint8_t pa
      +                          ge, uint8_t column);C:/Users/saksh/MPLABXProjects/test2.X/ssd1306.c: 202: {;C:/Users/sak
      +                          sh/MPLABXProjects/test2.X/ssd1306.c: 203:     if (column >= 128 || page >= 8)
  2231     0172  3080               	movlw	128
  2232     0173  0277               	subwf	ssd1306_setcursor@column,w
  2233     0174  1803               	skipnc
  2234     0175  2977               	goto	u961
  2235     0176  2978               	goto	u960
  2236     0177                     u961:
  2237     0177  299C               	goto	l157
  2238     0178                     u960:
  2239     0178                     l1532:
  2240     0178  3008               	movlw	8
  2241     0179  0278               	subwf	ssd1306_setcursor@page,w
  2242     017A  1C03               	skipc
  2243     017B  297D               	goto	u971
  2244     017C  297E               	goto	u970
  2245     017D                     u971:
  2246     017D  297F               	goto	l1534
  2247     017E                     u970:
  2248     017E  299C               	goto	l157
  2249     017F                     l1534:
  2250                           
  2251                           ;C:/Users/saksh/MPLABXProjects/test2.X/ssd1306.c: 208:     ssd1306_current_col = column;
  2252     017F  0877               	movf	ssd1306_setcursor@column,w
  2253     0180  0020               	movlb	0	; select bank0
  2254     0181  00E1               	movwf	_ssd1306_current_col
  2255                           
  2256                           ;C:/Users/saksh/MPLABXProjects/test2.X/ssd1306.c: 209:     ssd1306_current_page = page;
  2257     0182  0878               	movf	ssd1306_setcursor@page,w
  2258     0183  00E0               	movwf	_ssd1306_current_page
  2259     0184                     l1536:
  2260                           
  2261                           ;C:/Users/saksh/MPLABXProjects/test2.X/ssd1306.c: 211:     ssd1306_command(0x21);
  2262     0184  3021               	movlw	33
  2263     0185  3180  203C  3181   	fcall	_ssd1306_command
  2264     0188                     l1538:
  2265                           
  2266                           ;C:/Users/saksh/MPLABXProjects/test2.X/ssd1306.c: 212:     ssd1306_command(column);
  2267     0188  0877               	movf	ssd1306_setcursor@column,w
  2268     0189  3180  203C  3181   	fcall	_ssd1306_command
  2269     018C                     l1540:
  2270                           
  2271                           ;C:/Users/saksh/MPLABXProjects/test2.X/ssd1306.c: 213:     ssd1306_command(128 - 1);
  2272     018C  307F               	movlw	127
  2273     018D  3180  203C  3181   	fcall	_ssd1306_command
  2274     0190                     l1542:
  2275                           
  2276                           ;C:/Users/saksh/MPLABXProjects/test2.X/ssd1306.c: 214:     ssd1306_command(0x22);
  2277     0190  3022               	movlw	34
  2278     0191  3180  203C  3181   	fcall	_ssd1306_command
  2279     0194                     l1544:
  2280                           
  2281                           ;C:/Users/saksh/MPLABXProjects/test2.X/ssd1306.c: 215:     ssd1306_command(page);
  2282     0194  0878               	movf	ssd1306_setcursor@page,w
  2283     0195  3180  203C  3181   	fcall	_ssd1306_command
  2284     0198                     l1546:
  2285                           
  2286                           ;C:/Users/saksh/MPLABXProjects/test2.X/ssd1306.c: 216:     ssd1306_command(8 - 1);
  2287     0198  3007               	movlw	7
  2288     0199  3180  203C  3181   	fcall	_ssd1306_command
  2289     019C                     l157:
  2290     019C  0008               	return
  2291     019D                     __end_of_ssd1306_setcursor:
  2292                           
  2293                           	psect	text3
  2294     0145                     __ptext3:	
  2295 ;; *************** function _ssd1306_clear_refresh *****************
  2296 ;; Defined at:
  2297 ;;		line 262 in file "C:/Users/saksh/MPLABXProjects/test2.X/ssd1306.c"
  2298 ;; Parameters:    Size  Location     Type
  2299 ;;		None
  2300 ;; Auto vars:     Size  Location     Type
  2301 ;;  i               2    7[COMMON] unsigned short 
  2302 ;; Return value:  Size  Location     Type
  2303 ;;                  1    wreg      void 
  2304 ;; Registers used:
  2305 ;;		wreg, status,2, status,0, pclath, cstack
  2306 ;; Tracked objects:
  2307 ;;		On entry : 0/0
  2308 ;;		On exit  : 0/0
  2309 ;;		Unchanged: 0/0
  2310 ;; Data sizes:     COMMON   BANK0   BANK1
  2311 ;;      Params:         0       0       0
  2312 ;;      Locals:         2       0       0
  2313 ;;      Temps:          0       0       0
  2314 ;;      Totals:         2       0       0
  2315 ;;Total ram usage:        2 bytes
  2316 ;; Hardware stack levels used: 1
  2317 ;; Hardware stack levels required when called: 4
  2318 ;; This function calls:
  2319 ;;		_ssd1306_command
  2320 ;;		_ssd1306_data
  2321 ;; This function is called by:
  2322 ;;		_ssd1306_init
  2323 ;; This function uses a non-reentrant model
  2324 ;;
  2325                           
  2326     0145                     _ssd1306_clear_refresh:	
  2327                           ;psect for function _ssd1306_clear_refresh
  2328                           
  2329     0145                     l1548:	
  2330                           ;incstack = 0
  2331                           ; Regs used in _ssd1306_clear_refresh: [wreg+status,2+status,0+pclath+cstack]
  2332                           
  2333                           
  2334                           ;C:/Users/saksh/MPLABXProjects/test2.X/ssd1306.c: 265:     ssd1306_command(0x21);
  2335     0145  3021               	movlw	33
  2336     0146  3180  203C  3181   	fcall	_ssd1306_command
  2337                           
  2338                           ;C:/Users/saksh/MPLABXProjects/test2.X/ssd1306.c: 266:     ssd1306_command(0);
  2339     0149  3000               	movlw	0
  2340     014A  3180  203C  3181   	fcall	_ssd1306_command
  2341                           
  2342                           ;C:/Users/saksh/MPLABXProjects/test2.X/ssd1306.c: 267:     ssd1306_command(128 - 1);
  2343     014D  307F               	movlw	127
  2344     014E  3180  203C  3181   	fcall	_ssd1306_command
  2345                           
  2346                           ;C:/Users/saksh/MPLABXProjects/test2.X/ssd1306.c: 270:     ssd1306_command(0x22);
  2347     0151  3022               	movlw	34
  2348     0152  3180  203C  3181   	fcall	_ssd1306_command
  2349                           
  2350                           ;C:/Users/saksh/MPLABXProjects/test2.X/ssd1306.c: 271:     ssd1306_command(0);
  2351     0155  3000               	movlw	0
  2352     0156  3180  203C  3181   	fcall	_ssd1306_command
  2353                           
  2354                           ;C:/Users/saksh/MPLABXProjects/test2.X/ssd1306.c: 272:     ssd1306_command((64 / 8) - 1)
      +                          ;
  2355     0159  3007               	movlw	7
  2356     015A  3180  203C  3181   	fcall	_ssd1306_command
  2357     015D                     l1550:
  2358                           
  2359                           ;C:/Users/saksh/MPLABXProjects/test2.X/ssd1306.c: 275:     for (uint16_t i = 0; i < (128
      +                           * (64 / 8)); i++)
  2360     015D  01F7               	clrf	ssd1306_clear_refresh@i
  2361     015E  01F8               	clrf	ssd1306_clear_refresh@i+1
  2362     015F                     l1556:
  2363                           
  2364                           ;C:/Users/saksh/MPLABXProjects/test2.X/ssd1306.c: 276:     {;C:/Users/saksh/MPLABXProjec
      +                          ts/test2.X/ssd1306.c: 277:         ssd1306_data(0);
  2365     015F  3000               	movlw	0
  2366     0160  3180  204E  3181   	fcall	_ssd1306_data
  2367     0163                     l1558:
  2368                           
  2369                           ;C:/Users/saksh/MPLABXProjects/test2.X/ssd1306.c: 278:     }
  2370     0163  3001               	movlw	1
  2371     0164  07F7               	addwf	ssd1306_clear_refresh@i,f
  2372     0165  3000               	movlw	0
  2373     0166  3DF8               	addwfc	ssd1306_clear_refresh@i+1,f
  2374     0167                     l1560:
  2375     0167  3004               	movlw	4
  2376     0168  0278               	subwf	ssd1306_clear_refresh@i+1,w
  2377     0169  3000               	movlw	0
  2378     016A  1903               	skipnz
  2379     016B  0277               	subwf	ssd1306_clear_refresh@i,w
  2380     016C  1C03               	skipc
  2381     016D  296F               	goto	u981
  2382     016E  2970               	goto	u980
  2383     016F                     u981:
  2384     016F  295F               	goto	l1556
  2385     0170                     u980:
  2386     0170                     l175:
  2387     0170  0008               	return
  2388     0171                     __end_of_ssd1306_clear_refresh:
  2389                           
  2390                           	psect	text4
  2391     003C                     __ptext4:	
  2392 ;; *************** function _ssd1306_command *****************
  2393 ;; Defined at:
  2394 ;;		line 186 in file "C:/Users/saksh/MPLABXProjects/test2.X/ssd1306.c"
  2395 ;; Parameters:    Size  Location     Type
  2396 ;;  command         1    wreg     unsigned char 
  2397 ;; Auto vars:     Size  Location     Type
  2398 ;;  command         1    6[COMMON] unsigned char 
  2399 ;; Return value:  Size  Location     Type
  2400 ;;                  1    wreg      void 
  2401 ;; Registers used:
  2402 ;;		wreg, status,2, status,0, pclath, cstack
  2403 ;; Tracked objects:
  2404 ;;		On entry : 0/0
  2405 ;;		On exit  : 0/0
  2406 ;;		Unchanged: 0/0
  2407 ;; Data sizes:     COMMON   BANK0   BANK1
  2408 ;;      Params:         0       0       0
  2409 ;;      Locals:         1       0       0
  2410 ;;      Temps:          0       0       0
  2411 ;;      Totals:         1       0       0
  2412 ;;Total ram usage:        1 bytes
  2413 ;; Hardware stack levels used: 1
  2414 ;; Hardware stack levels required when called: 3
  2415 ;; This function calls:
  2416 ;;		_I2C_write_memory
  2417 ;; This function is called by:
  2418 ;;		_ssd1306_init
  2419 ;;		_ssd1306_setcursor
  2420 ;;		_ssd1306_clear_refresh
  2421 ;; This function uses a non-reentrant model
  2422 ;;
  2423                           
  2424     003C                     _ssd1306_command:	
  2425                           ;psect for function _ssd1306_command
  2426                           
  2427                           
  2428                           ;incstack = 0
  2429                           ; Regs used in _ssd1306_command: [wreg+status,2+status,0+pclath+cstack]
  2430                           ;ssd1306_command@command stored from wreg
  2431     003C  00F6               	movwf	ssd1306_command@command
  2432     003D                     l1444:
  2433                           
  2434                           ;C:/Users/saksh/MPLABXProjects/test2.X/ssd1306.c: 186: void ssd1306_command(uint8_t comm
      +                          and);C:/Users/saksh/MPLABXProjects/test2.X/ssd1306.c: 187: {;C:/Users/saksh/MPLABXProjec
      +                          ts/test2.X/ssd1306.c: 189:     I2C_write_memory(0x3C, 0x00, command);
  2435     003D  01F3               	clrf	I2C_write_memory@memory_addr
  2436     003E  0876               	movf	ssd1306_command@command,w
  2437     003F  00F4               	movwf	I2C_write_memory@data
  2438     0040  303C               	movlw	60
  2439     0041  3180  207A  3180   	fcall	_I2C_write_memory
  2440     0044                     l148:
  2441     0044  0008               	return
  2442     0045                     __end_of_ssd1306_command:
  2443                           
  2444                           	psect	text5
  2445     0351                     __ptext5:	
  2446 ;; *************** function _ssd1306_Print_String *****************
  2447 ;; Defined at:
  2448 ;;		line 220 in file "C:/Users/saksh/MPLABXProjects/test2.X/ssd1306.c"
  2449 ;; Parameters:    Size  Location     Type
  2450 ;;  str             1    wreg     PTR unsigned char 
  2451 ;;		 -> main@str(20), 
  2452 ;; Auto vars:     Size  Location     Type
  2453 ;;  str             1    3[BANK0 ] PTR unsigned char 
  2454 ;;		 -> main@str(20), 
  2455 ;;  str_cnt         2    1[BANK0 ] unsigned short 
  2456 ;;  font_col        1    0[BANK0 ] unsigned char 
  2457 ;; Return value:  Size  Location     Type
  2458 ;;                  1    wreg      void 
  2459 ;; Registers used:
  2460 ;;		wreg, fsr0l, fsr0h, fsr1l, fsr1h, status,2, status,0, pclath, cstack
  2461 ;; Tracked objects:
  2462 ;;		On entry : 0/0
  2463 ;;		On exit  : 0/0
  2464 ;;		Unchanged: 0/0
  2465 ;; Data sizes:     COMMON   BANK0   BANK1
  2466 ;;      Params:         0       0       0
  2467 ;;      Locals:         0       4       0
  2468 ;;      Temps:          7       0       0
  2469 ;;      Totals:         7       4       0
  2470 ;;Total ram usage:       11 bytes
  2471 ;; Hardware stack levels used: 1
  2472 ;; Hardware stack levels required when called: 4
  2473 ;; This function calls:
  2474 ;;		___wmul
  2475 ;;		_ssd1306_data
  2476 ;; This function is called by:
  2477 ;;		_main
  2478 ;; This function uses a non-reentrant model
  2479 ;;
  2480                           
  2481     0351                     _ssd1306_Print_String:	
  2482                           ;psect for function _ssd1306_Print_String
  2483                           
  2484                           
  2485                           ;incstack = 0
  2486                           ; Regs used in _ssd1306_Print_String: [wreg-fsr1h+status,2+status,0+pclath+cstack]
  2487                           ;ssd1306_Print_String@str stored from wreg
  2488     0351  0020               	movlb	0	; select bank0
  2489     0352  00A3               	movwf	ssd1306_Print_String@str
  2490     0353                     l1658:
  2491                           
  2492                           ;C:/Users/saksh/MPLABXProjects/test2.X/ssd1306.c: 220: void ssd1306_Print_String(uint8_t
      +                          * str);C:/Users/saksh/MPLABXProjects/test2.X/ssd1306.c: 221: {;C:/Users/saksh/MPLABXProj
      +                          ects/test2.X/ssd1306.c: 222:     uint16_t str_cnt = 0;
  2493     0353  01A1               	clrf	ssd1306_Print_String@str_cnt
  2494     0354  01A2               	clrf	ssd1306_Print_String@str_cnt+1
  2495                           
  2496                           ;C:/Users/saksh/MPLABXProjects/test2.X/ssd1306.c: 225:     for(str_cnt = 0 ; str[str_cnt
      +                          ] != '\0' ; str_cnt++)
  2497     0355  01A1               	clrf	ssd1306_Print_String@str_cnt
  2498     0356  01A2               	clrf	ssd1306_Print_String@str_cnt+1
  2499     0357  2BC9               	goto	l1690
  2500     0358                     l1660:
  2501                           
  2502                           ;C:/Users/saksh/MPLABXProjects/test2.X/ssd1306.c: 226:     {;C:/Users/saksh/MPLABXProjec
      +                          ts/test2.X/ssd1306.c: 231:         if((str[str_cnt] >= 0x20) && (str[str_cnt] <= 0x7F))
  2503     0358  0821               	movf	ssd1306_Print_String@str_cnt,w
  2504     0359  0723               	addwf	ssd1306_Print_String@str,w
  2505     035A  00F7               	movwf	??_ssd1306_Print_String
  2506     035B  0877               	movf	??_ssd1306_Print_String,w
  2507     035C  0086               	movwf	6
  2508     035D  0187               	clrf	7
  2509     035E  3020               	movlw	32
  2510     035F  0201               	subwf	1,w
  2511     0360  1C03               	skipc
  2512     0361  2B63               	goto	u1101
  2513     0362  2B64               	goto	u1100
  2514     0363                     u1101:
  2515     0363  2BC5               	goto	l1688
  2516     0364                     u1100:
  2517     0364                     l1662:
  2518     0364  0821               	movf	ssd1306_Print_String@str_cnt,w
  2519     0365  0723               	addwf	ssd1306_Print_String@str,w
  2520     0366  00F7               	movwf	??_ssd1306_Print_String
  2521     0367  0877               	movf	??_ssd1306_Print_String,w
  2522     0368  0086               	movwf	6
  2523     0369  0187               	clrf	7
  2524     036A  3080               	movlw	128
  2525     036B  0201               	subwf	1,w
  2526     036C  1803               	skipnc
  2527     036D  2B6F               	goto	u1111
  2528     036E  2B70               	goto	u1110
  2529     036F                     u1111:
  2530     036F  2BC5               	goto	l1688
  2531     0370                     u1110:
  2532     0370                     l1664:
  2533                           
  2534                           ;C:/Users/saksh/MPLABXProjects/test2.X/ssd1306.c: 232:      {;C:/Users/saksh/MPLABXProje
      +                          cts/test2.X/ssd1306.c: 233:             for(font_col = 0 ; font_col < 7 ; font_col++)
  2535     0370  01A0               	clrf	ssd1306_Print_String@font_col
  2536     0371                     l1670:
  2537                           
  2538                           ;C:/Users/saksh/MPLABXProjects/test2.X/ssd1306.c: 234:             {;C:/Users/saksh/MPLA
      +                          BXProjects/test2.X/ssd1306.c: 235:                 ssd1306_data(font_5x8[str[str_cnt] - 
      +                          32][font_col]);
  2539     0371  0821               	movf	ssd1306_Print_String@str_cnt,w
  2540     0372  0723               	addwf	ssd1306_Print_String@str,w
  2541     0373  00F7               	movwf	??_ssd1306_Print_String
  2542     0374  0877               	movf	??_ssd1306_Print_String,w
  2543     0375  0086               	movwf	6
  2544     0376  0187               	clrf	7
  2545     0377  0801               	movf	1,w
  2546     0378  00F8               	movwf	??_ssd1306_Print_String+1
  2547     0379  01F9               	clrf	??_ssd1306_Print_String+2
  2548     037A  0878               	movf	??_ssd1306_Print_String+1,w
  2549     037B  00F0               	movwf	___wmul@multiplier
  2550     037C  0879               	movf	??_ssd1306_Print_String+2,w
  2551     037D  00F1               	movwf	___wmul@multiplier+1
  2552     037E  3007               	movlw	7
  2553     037F  00F2               	movwf	___wmul@multiplicand
  2554     0380  3000               	movlw	0
  2555     0381  00F3               	movwf	___wmul@multiplicand+1
  2556     0382  3181  2104  3183   	fcall	___wmul
  2557     0385  3035               	movlw	low ((_font_5x8| (0+32768)+65312))
  2558     0386  00FA               	movwf	??_ssd1306_Print_String+3
  2559     0387  3085               	movlw	high ((_font_5x8| (0+32768)+65312))
  2560     0388  00FB               	movwf	??_ssd1306_Print_String+4
  2561     0389  0870               	movf	?___wmul,w
  2562     038A  077A               	addwf	??_ssd1306_Print_String+3,w
  2563     038B  00FC               	movwf	??_ssd1306_Print_String+5
  2564     038C  0871               	movf	?___wmul+1,w
  2565     038D  3D7B               	addwfc	??_ssd1306_Print_String+4,w
  2566     038E  00FD               	movwf	??_ssd1306_Print_String+6
  2567     038F  0020               	movlb	0	; select bank0
  2568     0390  0820               	movf	ssd1306_Print_String@font_col,w
  2569     0391  077C               	addwf	??_ssd1306_Print_String+5,w
  2570     0392  0084               	movwf	4
  2571     0393  087D               	movf	??_ssd1306_Print_String+6,w
  2572     0394  1803               	skipnc
  2573     0395  0A7D               	incf	??_ssd1306_Print_String+6,w
  2574     0396  0085               	movwf	5
  2575     0397  0800               	movf	0,w	;code access
  2576     0398  3180  204E  3183   	fcall	_ssd1306_data
  2577     039B                     l1672:
  2578                           
  2579                           ;C:/Users/saksh/MPLABXProjects/test2.X/ssd1306.c: 237:                 if(ssd1306_curren
      +                          t_col < (128 - 7))
  2580     039B  3079               	movlw	121
  2581     039C  0020               	movlb	0	; select bank0
  2582     039D  0261               	subwf	_ssd1306_current_col,w
  2583     039E  1803               	skipnc
  2584     039F  2BA1               	goto	u1121
  2585     03A0  2BA2               	goto	u1120
  2586     03A1                     u1121:
  2587     03A1  2BA7               	goto	l1676
  2588     03A2                     u1120:
  2589     03A2                     l1674:
  2590                           
  2591                           ;C:/Users/saksh/MPLABXProjects/test2.X/ssd1306.c: 238:                 {;C:/Users/saksh/
      +                          MPLABXProjects/test2.X/ssd1306.c: 239:                     ssd1306_current_col += 7;
  2592     03A2  3007               	movlw	7
  2593     03A3  00F7               	movwf	??_ssd1306_Print_String
  2594     03A4  0877               	movf	??_ssd1306_Print_String,w
  2595     03A5  07E1               	addwf	_ssd1306_current_col,f
  2596                           
  2597                           ;C:/Users/saksh/MPLABXProjects/test2.X/ssd1306.c: 240:                 }
  2598     03A6  2BBB               	goto	l1684
  2599     03A7                     l1676:
  2600                           
  2601                           ;C:/Users/saksh/MPLABXProjects/test2.X/ssd1306.c: 242:                 {;C:/Users/saksh/
      +                          MPLABXProjects/test2.X/ssd1306.c: 243:                     ssd1306_current_col += 7;
  2602     03A7  3007               	movlw	7
  2603     03A8  00F7               	movwf	??_ssd1306_Print_String
  2604     03A9  0877               	movf	??_ssd1306_Print_String,w
  2605     03AA  07E1               	addwf	_ssd1306_current_col,f
  2606                           
  2607                           ;C:/Users/saksh/MPLABXProjects/test2.X/ssd1306.c: 244:                     ssd1306_curre
      +                          nt_col %= 128 ;
  2608     03AB  307F               	movlw	127
  2609     03AC  00F7               	movwf	??_ssd1306_Print_String
  2610     03AD  0877               	movf	??_ssd1306_Print_String,w
  2611     03AE  05E1               	andwf	_ssd1306_current_col,f
  2612     03AF                     l1678:
  2613                           
  2614                           ;C:/Users/saksh/MPLABXProjects/test2.X/ssd1306.c: 246:                     if(ssd1306_cu
      +                          rrent_page < (8 - 1))
  2615     03AF  3007               	movlw	7
  2616     03B0  0260               	subwf	_ssd1306_current_page,w
  2617     03B1  1803               	skipnc
  2618     03B2  2BB4               	goto	u1131
  2619     03B3  2BB5               	goto	u1130
  2620     03B4                     u1131:
  2621     03B4  2BBA               	goto	l1682
  2622     03B5                     u1130:
  2623     03B5                     l1680:
  2624                           
  2625                           ;C:/Users/saksh/MPLABXProjects/test2.X/ssd1306.c: 247:                     {;C:/Users/sa
      +                          ksh/MPLABXProjects/test2.X/ssd1306.c: 248:                         ssd1306_current_page+
      +                          +;
  2626     03B5  3001               	movlw	1
  2627     03B6  00F7               	movwf	??_ssd1306_Print_String
  2628     03B7  0877               	movf	??_ssd1306_Print_String,w
  2629     03B8  07E0               	addwf	_ssd1306_current_page,f
  2630                           
  2631                           ;C:/Users/saksh/MPLABXProjects/test2.X/ssd1306.c: 249:                     }
  2632     03B9  2BBB               	goto	l1684
  2633     03BA                     l1682:
  2634                           
  2635                           ;C:/Users/saksh/MPLABXProjects/test2.X/ssd1306.c: 251:                     {;C:/Users/sa
      +                          ksh/MPLABXProjects/test2.X/ssd1306.c: 252:                         ssd1306_current_page 
      +                          = 0;
  2636     03BA  01E0               	clrf	_ssd1306_current_page
  2637     03BB                     l1684:
  2638                           
  2639                           ;C:/Users/saksh/MPLABXProjects/test2.X/ssd1306.c: 255:             }
  2640     03BB  3001               	movlw	1
  2641     03BC  00F7               	movwf	??_ssd1306_Print_String
  2642     03BD  0877               	movf	??_ssd1306_Print_String,w
  2643     03BE  07A0               	addwf	ssd1306_Print_String@font_col,f
  2644     03BF                     l1686:
  2645     03BF  3007               	movlw	7
  2646     03C0  0220               	subwf	ssd1306_Print_String@font_col,w
  2647     03C1  1C03               	skipc
  2648     03C2  2BC4               	goto	u1141
  2649     03C3  2BC5               	goto	u1140
  2650     03C4                     u1141:
  2651     03C4  2B71               	goto	l1670
  2652     03C5                     u1140:
  2653     03C5                     l1688:
  2654                           
  2655                           ;C:/Users/saksh/MPLABXProjects/test2.X/ssd1306.c: 257:     }
  2656     03C5  3001               	movlw	1
  2657     03C6  07A1               	addwf	ssd1306_Print_String@str_cnt,f
  2658     03C7  3000               	movlw	0
  2659     03C8  3DA2               	addwfc	ssd1306_Print_String@str_cnt+1,f
  2660     03C9                     l1690:
  2661     03C9  0821               	movf	ssd1306_Print_String@str_cnt,w
  2662     03CA  0723               	addwf	ssd1306_Print_String@str,w
  2663     03CB  00F7               	movwf	??_ssd1306_Print_String
  2664     03CC  0877               	movf	??_ssd1306_Print_String,w
  2665     03CD  0086               	movwf	6
  2666     03CE  0187               	clrf	7
  2667     03CF  0801               	movf	1,w
  2668     03D0  1D03               	btfss	3,2
  2669     03D1  2BD3               	goto	u1151
  2670     03D2  2BD4               	goto	u1150
  2671     03D3                     u1151:
  2672     03D3  2B58               	goto	l1660
  2673     03D4                     u1150:
  2674     03D4                     l170:
  2675     03D4  0008               	return
  2676     03D5                     __end_of_ssd1306_Print_String:
  2677                           
  2678                           	psect	text6
  2679     004E                     __ptext6:	
  2680 ;; *************** function _ssd1306_data *****************
  2681 ;; Defined at:
  2682 ;;		line 194 in file "C:/Users/saksh/MPLABXProjects/test2.X/ssd1306.c"
  2683 ;; Parameters:    Size  Location     Type
  2684 ;;  data            1    wreg     unsigned char 
  2685 ;; Auto vars:     Size  Location     Type
  2686 ;;  data            1    6[COMMON] unsigned char 
  2687 ;; Return value:  Size  Location     Type
  2688 ;;                  1    wreg      void 
  2689 ;; Registers used:
  2690 ;;		wreg, status,2, status,0, pclath, cstack
  2691 ;; Tracked objects:
  2692 ;;		On entry : 0/0
  2693 ;;		On exit  : 0/0
  2694 ;;		Unchanged: 0/0
  2695 ;; Data sizes:     COMMON   BANK0   BANK1
  2696 ;;      Params:         0       0       0
  2697 ;;      Locals:         1       0       0
  2698 ;;      Temps:          0       0       0
  2699 ;;      Totals:         1       0       0
  2700 ;;Total ram usage:        1 bytes
  2701 ;; Hardware stack levels used: 1
  2702 ;; Hardware stack levels required when called: 3
  2703 ;; This function calls:
  2704 ;;		_I2C_write_memory
  2705 ;; This function is called by:
  2706 ;;		_ssd1306_Print_String
  2707 ;;		_ssd1306_clear_refresh
  2708 ;; This function uses a non-reentrant model
  2709 ;;
  2710                           
  2711     004E                     _ssd1306_data:	
  2712                           ;psect for function _ssd1306_data
  2713                           
  2714                           
  2715                           ;incstack = 0
  2716                           ; Regs used in _ssd1306_data: [wreg+status,2+status,0+pclath+cstack]
  2717                           ;ssd1306_data@data stored from wreg
  2718     004E  00F6               	movwf	ssd1306_data@data
  2719     004F                     l1446:
  2720                           
  2721                           ;C:/Users/saksh/MPLABXProjects/test2.X/ssd1306.c: 194: void ssd1306_data(uint8_t data);C
      +                          :/Users/saksh/MPLABXProjects/test2.X/ssd1306.c: 195: {;C:/Users/saksh/MPLABXProjects/tes
      +                          t2.X/ssd1306.c: 197:  I2C_write_memory(0x3C, 0xC0, data);
  2722     004F  30C0               	movlw	192
  2723     0050  00F3               	movwf	I2C_write_memory@memory_addr
  2724     0051  0876               	movf	ssd1306_data@data,w
  2725     0052  00F4               	movwf	I2C_write_memory@data
  2726     0053  303C               	movlw	60
  2727     0054  3180  207A  3180   	fcall	_I2C_write_memory
  2728     0057                     l151:
  2729     0057  0008               	return
  2730     0058                     __end_of_ssd1306_data:
  2731                           
  2732                           	psect	text7
  2733     007A                     __ptext7:	
  2734 ;; *************** function _I2C_write_memory *****************
  2735 ;; Defined at:
  2736 ;;		line 148 in file "C:/Users/saksh/MPLABXProjects/test2.X/Source/I2C.c"
  2737 ;; Parameters:    Size  Location     Type
  2738 ;;  slave_addr      1    wreg     unsigned char 
  2739 ;;  memory_addr     1    3[COMMON] unsigned char 
  2740 ;;  data            1    4[COMMON] unsigned char 
  2741 ;; Auto vars:     Size  Location     Type
  2742 ;;  slave_addr      1    5[COMMON] unsigned char 
  2743 ;; Return value:  Size  Location     Type
  2744 ;;                  1    wreg      void 
  2745 ;; Registers used:
  2746 ;;		wreg, status,2, status,0, pclath, cstack
  2747 ;; Tracked objects:
  2748 ;;		On entry : 0/0
  2749 ;;		On exit  : 0/0
  2750 ;;		Unchanged: 0/0
  2751 ;; Data sizes:     COMMON   BANK0   BANK1
  2752 ;;      Params:         2       0       0
  2753 ;;      Locals:         1       0       0
  2754 ;;      Temps:          0       0       0
  2755 ;;      Totals:         3       0       0
  2756 ;;Total ram usage:        3 bytes
  2757 ;; Hardware stack levels used: 1
  2758 ;; Hardware stack levels required when called: 2
  2759 ;; This function calls:
  2760 ;;		_I2C_begin_transmission
  2761 ;;		_I2C_set_address
  2762 ;;		_I2C_stop_transmission
  2763 ;;		_I2C_transmit_data
  2764 ;; This function is called by:
  2765 ;;		_ssd1306_command
  2766 ;;		_ssd1306_data
  2767 ;; This function uses a non-reentrant model
  2768 ;;
  2769                           
  2770     007A                     _I2C_write_memory:	
  2771                           ;psect for function _I2C_write_memory
  2772                           
  2773                           
  2774                           ;incstack = 0
  2775                           ; Regs used in _I2C_write_memory: [wreg+status,2+status,0+pclath+cstack]
  2776                           ;I2C_write_memory@slave_addr stored from wreg
  2777     007A  00F5               	movwf	I2C_write_memory@slave_addr
  2778     007B                     l1376:
  2779                           
  2780                           ;C:/Users/saksh/MPLABXProjects/test2.X/Source/I2C.c: 148: void I2C_write_memory(uint8_t 
      +                          slave_addr, uint8_t memory_addr, uint8_t data);C:/Users/saksh/MPLABXProjects/test2.X/Sou
      +                          rce/I2C.c: 149: {;C:/Users/saksh/MPLABXProjects/test2.X/Source/I2C.c: 150:     I2C_begin
      +                          _transmission();
  2781     007B  3180  2068  3180   	fcall	_I2C_begin_transmission
  2782                           
  2783                           ;C:/Users/saksh/MPLABXProjects/test2.X/Source/I2C.c: 151:     I2C_set_address(slave_addr
      +                          , 0);
  2784     007E  01F0               	clrf	I2C_set_address@read_write_flag
  2785     007F  0875               	movf	I2C_write_memory@slave_addr,w
  2786     0080  3181  2123  3180   	fcall	_I2C_set_address
  2787                           
  2788                           ;C:/Users/saksh/MPLABXProjects/test2.X/Source/I2C.c: 152:     I2C_transmit_data(memory_a
      +                          ddr);
  2789     0083  0873               	movf	I2C_write_memory@memory_addr,w
  2790     0084  3180  2058  3180   	fcall	_I2C_transmit_data
  2791                           
  2792                           ;C:/Users/saksh/MPLABXProjects/test2.X/Source/I2C.c: 153:     I2C_transmit_data(data);
  2793     0087  0874               	movf	I2C_write_memory@data,w
  2794     0088  3180  2058  3180   	fcall	_I2C_transmit_data
  2795     008B                     l1378:
  2796                           
  2797                           ;C:/Users/saksh/MPLABXProjects/test2.X/Source/I2C.c: 154:     I2C_stop_transmission();
  2798     008B  3180  2035  3180   	fcall	_I2C_stop_transmission
  2799     008E                     l125:
  2800     008E  0008               	return
  2801     008F                     __end_of_I2C_write_memory:
  2802                           
  2803                           	psect	text8
  2804     0058                     __ptext8:	
  2805 ;; *************** function _I2C_transmit_data *****************
  2806 ;; Defined at:
  2807 ;;		line 113 in file "C:/Users/saksh/MPLABXProjects/test2.X/Source/I2C.c"
  2808 ;; Parameters:    Size  Location     Type
  2809 ;;  data            1    wreg     unsigned char 
  2810 ;; Auto vars:     Size  Location     Type
  2811 ;;  data            1    1[COMMON] unsigned char 
  2812 ;; Return value:  Size  Location     Type
  2813 ;;                  1    wreg      void 
  2814 ;; Registers used:
  2815 ;;		wreg, status,2, status,0
  2816 ;; Tracked objects:
  2817 ;;		On entry : 0/0
  2818 ;;		On exit  : 0/0
  2819 ;;		Unchanged: 0/0
  2820 ;; Data sizes:     COMMON   BANK0   BANK1
  2821 ;;      Params:         0       0       0
  2822 ;;      Locals:         1       0       0
  2823 ;;      Temps:          1       0       0
  2824 ;;      Totals:         2       0       0
  2825 ;;Total ram usage:        2 bytes
  2826 ;; Hardware stack levels used: 1
  2827 ;; This function calls:
  2828 ;;		Nothing
  2829 ;; This function is called by:
  2830 ;;		_I2C_write_memory
  2831 ;;		_I2C_write_memory_array
  2832 ;; This function uses a non-reentrant model
  2833 ;;
  2834                           
  2835     0058                     _I2C_transmit_data:	
  2836                           ;psect for function _I2C_transmit_data
  2837                           
  2838                           
  2839                           ;incstack = 0
  2840                           ; Regs used in _I2C_transmit_data: [wreg+status,2+status,0]
  2841                           ;I2C_transmit_data@data stored from wreg
  2842     0058  00F1               	movwf	I2C_transmit_data@data
  2843     0059                     l1372:
  2844                           
  2845                           ;C:/Users/saksh/MPLABXProjects/test2.X/Source/I2C.c: 113: void I2C_transmit_data(uint8_t
      +                           data);C:/Users/saksh/MPLABXProjects/test2.X/Source/I2C.c: 114: {;C:/Users/saksh/MPLABXP
      +                          rojects/test2.X/Source/I2C.c: 116:     SSP1BUF = data;
  2846     0059  0871               	movf	I2C_transmit_data@data,w
  2847     005A  0024               	movlb	4	; select bank4
  2848     005B  0091               	movwf	17	;volatile
  2849     005C                     l1374:	
  2850                           ;C:/Users/saksh/MPLABXProjects/test2.X/Source/I2C.c: 117:     while(!!(SSP1STATbits.R_nW
      +                           | (0x1F & SSP1CON2)));
  2851                           
  2852     005C  0C14               	rrf	20,w	;volatile
  2853     005D  0C89               	rrf	9,f
  2854     005E  3901               	andlw	1
  2855     005F  00F0               	movwf	??_I2C_transmit_data
  2856     0060  0816               	movf	22,w	;volatile
  2857     0061  391F               	andlw	31
  2858     0062  0470               	iorwf	??_I2C_transmit_data,w
  2859     0063  1D03               	btfss	3,2
  2860     0064  2866               	goto	u731
  2861     0065  2867               	goto	u730
  2862     0066                     u731:
  2863     0066  285C               	goto	l1374
  2864     0067                     u730:
  2865     0067                     l108:
  2866     0067  0008               	return
  2867     0068                     __end_of_I2C_transmit_data:
  2868                           
  2869                           	psect	text9
  2870     0123                     __ptext9:	
  2871 ;; *************** function _I2C_set_address *****************
  2872 ;; Defined at:
  2873 ;;		line 78 in file "C:/Users/saksh/MPLABXProjects/test2.X/Source/I2C.c"
  2874 ;; Parameters:    Size  Location     Type
  2875 ;;  address         1    wreg     unsigned char 
  2876 ;;  read_write_f    1    0[COMMON] unsigned char 
  2877 ;; Auto vars:     Size  Location     Type
  2878 ;;  address         1    2[COMMON] unsigned char 
  2879 ;; Return value:  Size  Location     Type
  2880 ;;                  1    wreg      void 
  2881 ;; Registers used:
  2882 ;;		wreg, status,2, status,0, pclath, cstack
  2883 ;; Tracked objects:
  2884 ;;		On entry : 0/0
  2885 ;;		On exit  : 0/0
  2886 ;;		Unchanged: 0/0
  2887 ;; Data sizes:     COMMON   BANK0   BANK1
  2888 ;;      Params:         1       0       0
  2889 ;;      Locals:         1       0       0
  2890 ;;      Temps:          1       0       0
  2891 ;;      Totals:         3       0       0
  2892 ;;Total ram usage:        3 bytes
  2893 ;; Hardware stack levels used: 1
  2894 ;; Hardware stack levels required when called: 1
  2895 ;; This function calls:
  2896 ;;		_I2C_stop_transmission
  2897 ;; This function is called by:
  2898 ;;		_I2C_write_memory
  2899 ;;		_I2C_write_memory_array
  2900 ;; This function uses a non-reentrant model
  2901 ;;
  2902                           
  2903     0123                     _I2C_set_address:	
  2904                           ;psect for function _I2C_set_address
  2905                           
  2906                           
  2907                           ;incstack = 0
  2908                           ; Regs used in _I2C_set_address: [wreg+status,2+status,0+pclath+cstack]
  2909                           ;I2C_set_address@address stored from wreg
  2910     0123  00F2               	movwf	I2C_set_address@address
  2911     0124                     l1362:
  2912                           
  2913                           ;C:/Users/saksh/MPLABXProjects/test2.X/Source/I2C.c: 78: void I2C_set_address(uint8_t ad
      +                          dress, uint8_t read_write_flag);C:/Users/saksh/MPLABXProjects/test2.X/Source/I2C.c: 79: 
      +                          {;C:/Users/saksh/MPLABXProjects/test2.X/Source/I2C.c: 80:     if(read_write_flag == 1)
  2914     0124  0370               	decf	I2C_set_address@read_write_flag,w
  2915     0125  1D03               	btfss	3,2
  2916     0126  2928               	goto	u701
  2917     0127  2929               	goto	u700
  2918     0128                     u701:
  2919     0128  292E               	goto	l1366
  2920     0129                     u700:
  2921     0129                     l1364:
  2922                           
  2923                           ;C:/Users/saksh/MPLABXProjects/test2.X/Source/I2C.c: 81:     {;C:/Users/saksh/MPLABXProj
      +                          ects/test2.X/Source/I2C.c: 83:         SSP1BUF = ((address << 1) + 0x01);
  2924     0129  1403               	setc
  2925     012A  0D72               	rlf	I2C_set_address@address,w
  2926     012B  0024               	movlb	4	; select bank4
  2927     012C  0091               	movwf	17	;volatile
  2928                           
  2929                           ;C:/Users/saksh/MPLABXProjects/test2.X/Source/I2C.c: 84:     }
  2930     012D  2932               	goto	l1368
  2931     012E                     l1366:
  2932                           
  2933                           ;C:/Users/saksh/MPLABXProjects/test2.X/Source/I2C.c: 86:     {;C:/Users/saksh/MPLABXProj
      +                          ects/test2.X/Source/I2C.c: 88:         SSP1BUF = ((address << 1) & 0xFE);
  2934     012E  3572               	lslf	I2C_set_address@address,w
  2935     012F  39FE               	andlw	254
  2936     0130  0024               	movlb	4	; select bank4
  2937     0131  0091               	movwf	17	;volatile
  2938     0132                     l1368:
  2939     0132  0C14               	rrf	20,w	;volatile
  2940     0133  0C89               	rrf	9,f
  2941     0134  3901               	andlw	1
  2942     0135  00F1               	movwf	??_I2C_set_address
  2943     0136  0816               	movf	22,w	;volatile
  2944     0137  391F               	andlw	31
  2945     0138  0471               	iorwf	??_I2C_set_address,w
  2946     0139  1D03               	btfss	3,2
  2947     013A  293C               	goto	u711
  2948     013B  293D               	goto	u710
  2949     013C                     u711:
  2950     013C  2932               	goto	l1368
  2951     013D                     u710:
  2952     013D                     l91:
  2953                           
  2954                           ;C:/Users/saksh/MPLABXProjects/test2.X/Source/I2C.c: 93:     if((SSP1CON2bits.ACKSTAT))
  2955     013D  1F16               	btfss	22,6	;volatile
  2956     013E  2940               	goto	u721
  2957     013F  2941               	goto	u720
  2958     0140                     u721:
  2959     0140  2944               	goto	l93
  2960     0141                     u720:
  2961     0141                     l1370:
  2962                           
  2963                           ;C:/Users/saksh/MPLABXProjects/test2.X/Source/I2C.c: 94:     {;C:/Users/saksh/MPLABXProj
      +                          ects/test2.X/Source/I2C.c: 95:         I2C_stop_transmission();
  2964     0141  3180  2035  3181   	fcall	_I2C_stop_transmission
  2965     0144                     l93:
  2966     0144  0008               	return
  2967     0145                     __end_of_I2C_set_address:
  2968                           
  2969                           	psect	text10
  2970     0035                     __ptext10:	
  2971 ;; *************** function _I2C_stop_transmission *****************
  2972 ;; Defined at:
  2973 ;;		line 68 in file "C:/Users/saksh/MPLABXProjects/test2.X/Source/I2C.c"
  2974 ;; Parameters:    Size  Location     Type
  2975 ;;		None
  2976 ;; Auto vars:     Size  Location     Type
  2977 ;;		None
  2978 ;; Return value:  Size  Location     Type
  2979 ;;                  1    wreg      void 
  2980 ;; Registers used:
  2981 ;;		None
  2982 ;; Tracked objects:
  2983 ;;		On entry : 0/0
  2984 ;;		On exit  : 0/0
  2985 ;;		Unchanged: 0/0
  2986 ;; Data sizes:     COMMON   BANK0   BANK1
  2987 ;;      Params:         0       0       0
  2988 ;;      Locals:         0       0       0
  2989 ;;      Temps:          0       0       0
  2990 ;;      Totals:         0       0       0
  2991 ;;Total ram usage:        0 bytes
  2992 ;; Hardware stack levels used: 1
  2993 ;; This function calls:
  2994 ;;		Nothing
  2995 ;; This function is called by:
  2996 ;;		_I2C_set_address
  2997 ;;		_I2C_write_memory
  2998 ;;		_I2C_write_memory_array
  2999 ;; This function uses a non-reentrant model
  3000 ;;
  3001                           
  3002     0035                     _I2C_stop_transmission:	
  3003                           ;psect for function _I2C_stop_transmission
  3004                           
  3005     0035                     l1356:	
  3006                           ;incstack = 0
  3007                           ; Regs used in _I2C_stop_transmission: []
  3008                           
  3009                           
  3010                           ;C:/Users/saksh/MPLABXProjects/test2.X/Source/I2C.c: 71:     (SSP1CON2bits.PEN) = 1;
  3011     0035  0024               	movlb	4	; select bank4
  3012     0036  1516               	bsf	22,2	;volatile
  3013     0037                     l81:	
  3014                           ;C:/Users/saksh/MPLABXProjects/test2.X/Source/I2C.c: 74:     while(!(SSP1CON2bits.PEN));
  3015                           
  3016     0037  1D16               	btfss	22,2	;volatile
  3017     0038  283A               	goto	u671
  3018     0039  283B               	goto	u670
  3019     003A                     u671:
  3020     003A  2837               	goto	l81
  3021     003B                     u670:
  3022     003B                     l84:
  3023     003B  0008               	return
  3024     003C                     __end_of_I2C_stop_transmission:
  3025                           
  3026                           	psect	text11
  3027     0068                     __ptext11:	
  3028 ;; *************** function _I2C_begin_transmission *****************
  3029 ;; Defined at:
  3030 ;;		line 56 in file "C:/Users/saksh/MPLABXProjects/test2.X/Source/I2C.c"
  3031 ;; Parameters:    Size  Location     Type
  3032 ;;		None
  3033 ;; Auto vars:     Size  Location     Type
  3034 ;;		None
  3035 ;; Return value:  Size  Location     Type
  3036 ;;                  1    wreg      void 
  3037 ;; Registers used:
  3038 ;;		wreg, status,2, status,0
  3039 ;; Tracked objects:
  3040 ;;		On entry : 0/0
  3041 ;;		On exit  : 0/0
  3042 ;;		Unchanged: 0/0
  3043 ;; Data sizes:     COMMON   BANK0   BANK1
  3044 ;;      Params:         0       0       0
  3045 ;;      Locals:         0       0       0
  3046 ;;      Temps:          1       0       0
  3047 ;;      Totals:         1       0       0
  3048 ;;Total ram usage:        1 bytes
  3049 ;; Hardware stack levels used: 1
  3050 ;; This function calls:
  3051 ;;		Nothing
  3052 ;; This function is called by:
  3053 ;;		_I2C_write_memory
  3054 ;;		_I2C_write_memory_array
  3055 ;; This function uses a non-reentrant model
  3056 ;;
  3057                           
  3058     0068                     _I2C_begin_transmission:	
  3059                           ;psect for function _I2C_begin_transmission
  3060                           
  3061     0068                     l1358:	
  3062                           ;incstack = 0
  3063                           ; Regs used in _I2C_begin_transmission: [wreg+status,2+status,0]
  3064                           
  3065     0068                     l1360:	
  3066                           ;C:/Users/saksh/MPLABXProjects/test2.X/Source/I2C.c: 59:     while(!!(SSP1STATbits.R_nW 
      +                          | (0x1F & SSP1CON2)));
  3067                           
  3068     0068  0024               	movlb	4	; select bank4
  3069     0069  0C14               	rrf	20,w	;volatile
  3070     006A  0C89               	rrf	9,f
  3071     006B  3901               	andlw	1
  3072     006C  00F0               	movwf	??_I2C_begin_transmission
  3073     006D  0816               	movf	22,w	;volatile
  3074     006E  391F               	andlw	31
  3075     006F  0470               	iorwf	??_I2C_begin_transmission,w
  3076     0070  1D03               	btfss	3,2
  3077     0071  2873               	goto	u681
  3078     0072  2874               	goto	u680
  3079     0073                     u681:
  3080     0073  2868               	goto	l1360
  3081     0074                     u680:
  3082     0074                     l74:
  3083                           
  3084                           ;C:/Users/saksh/MPLABXProjects/test2.X/Source/I2C.c: 62:     (SSP1CON2bits.SEN) = 1;
  3085     0074  1416               	bsf	22,0	;volatile
  3086     0075                     l75:	
  3087                           ;C:/Users/saksh/MPLABXProjects/test2.X/Source/I2C.c: 64:     while((SSP1CON2bits.SEN));
  3088                           
  3089     0075  1816               	btfsc	22,0	;volatile
  3090     0076  2878               	goto	u691
  3091     0077  2879               	goto	u690
  3092     0078                     u691:
  3093     0078  2875               	goto	l75
  3094     0079                     u690:
  3095     0079                     l78:
  3096     0079  0008               	return
  3097     007A                     __end_of_I2C_begin_transmission:
  3098                           
  3099                           	psect	text12
  3100     0104                     __ptext12:	
  3101 ;; *************** function ___wmul *****************
  3102 ;; Defined at:
  3103 ;;		line 15 in file "C:\Program Files\Microchip\xc8\v2.45\pic\sources\c99\common\Umul16.c"
  3104 ;; Parameters:    Size  Location     Type
  3105 ;;  multiplier      2    0[COMMON] unsigned int 
  3106 ;;  multiplicand    2    2[COMMON] unsigned int 
  3107 ;; Auto vars:     Size  Location     Type
  3108 ;;  product         2    4[COMMON] unsigned int 
  3109 ;; Return value:  Size  Location     Type
  3110 ;;                  2    0[COMMON] unsigned int 
  3111 ;; Registers used:
  3112 ;;		wreg, status,2, status,0
  3113 ;; Tracked objects:
  3114 ;;		On entry : 0/0
  3115 ;;		On exit  : 0/0
  3116 ;;		Unchanged: 0/0
  3117 ;; Data sizes:     COMMON   BANK0   BANK1
  3118 ;;      Params:         4       0       0
  3119 ;;      Locals:         2       0       0
  3120 ;;      Temps:          0       0       0
  3121 ;;      Totals:         6       0       0
  3122 ;;Total ram usage:        6 bytes
  3123 ;; Hardware stack levels used: 1
  3124 ;; This function calls:
  3125 ;;		Nothing
  3126 ;; This function is called by:
  3127 ;;		_ssd1306_Print_String
  3128 ;; This function uses a non-reentrant model
  3129 ;;
  3130                           
  3131     0104                     ___wmul:	
  3132                           ;psect for function ___wmul
  3133                           
  3134     0104                     l1562:	
  3135                           ;incstack = 0
  3136                           ; Regs used in ___wmul: [wreg+status,2+status,0]
  3137                           
  3138     0104  01F4               	clrf	___wmul@product
  3139     0105  01F5               	clrf	___wmul@product+1
  3140     0106                     l1564:
  3141     0106  1C70               	btfss	___wmul@multiplier,0
  3142     0107  2909               	goto	u991
  3143     0108  290A               	goto	u990
  3144     0109                     u991:
  3145     0109  290E               	goto	l279
  3146     010A                     u990:
  3147     010A                     l1566:
  3148     010A  0872               	movf	___wmul@multiplicand,w
  3149     010B  07F4               	addwf	___wmul@product,f
  3150     010C  0873               	movf	___wmul@multiplicand+1,w
  3151     010D  3DF5               	addwfc	___wmul@product+1,f
  3152     010E                     l279:
  3153     010E  3001               	movlw	1
  3154     010F                     u1005:
  3155     010F  35F2               	lslf	___wmul@multiplicand,f
  3156     0110  0DF3               	rlf	___wmul@multiplicand+1,f
  3157     0111  0B89               	decfsz	9,f
  3158     0112  290F               	goto	u1005
  3159     0113                     l1568:
  3160     0113  3001               	movlw	1
  3161     0114                     u1015:
  3162     0114  36F1               	lsrf	___wmul@multiplier+1,f
  3163     0115  0CF0               	rrf	___wmul@multiplier,f
  3164     0116  0B89               	decfsz	9,f
  3165     0117  2914               	goto	u1015
  3166     0118                     l1570:
  3167     0118  0870               	movf	___wmul@multiplier,w
  3168     0119  0471               	iorwf	___wmul@multiplier+1,w
  3169     011A  1D03               	btfss	3,2
  3170     011B  291D               	goto	u1021
  3171     011C  291E               	goto	u1020
  3172     011D                     u1021:
  3173     011D  2906               	goto	l1564
  3174     011E                     u1020:
  3175     011E                     l1572:
  3176     011E  0875               	movf	___wmul@product+1,w
  3177     011F  00F1               	movwf	?___wmul+1
  3178     0120  0874               	movf	___wmul@product,w
  3179     0121  00F0               	movwf	?___wmul
  3180     0122                     l281:
  3181     0122  0008               	return
  3182     0123                     __end_of___wmul:
  3183                           
  3184                           	psect	text13
  3185     00C8                     __ptext13:	
  3186 ;; *************** function _sprintf *****************
  3187 ;; Defined at:
  3188 ;;		line 9 in file "C:\Program Files\Microchip\xc8\v2.45\pic\sources\c99\common\nf_sprintf.c"
  3189 ;; Parameters:    Size  Location     Type
  3190 ;;  s               1    wreg     PTR unsigned char 
  3191 ;;		 -> main@str(20), 
  3192 ;;  fmt             2   15[BANK0 ] PTR const unsigned char 
  3193 ;;		 -> STR_2(9), STR_1(10), 
  3194 ;; Auto vars:     Size  Location     Type
  3195 ;;  s               1   21[BANK0 ] PTR unsigned char 
  3196 ;;		 -> main@str(20), 
  3197 ;;  f              11   22[BANK0 ] struct _IO_FILE
  3198 ;;  ret             2    0        int 
  3199 ;;  ap              1   20[BANK0 ] PTR void [1]
  3200 ;;		 -> ?_sprintf(2), 
  3201 ;; Return value:  Size  Location     Type
  3202 ;;                  2   15[BANK0 ] int 
  3203 ;; Registers used:
  3204 ;;		wreg, fsr0l, fsr0h, fsr1l, fsr1h, status,2, status,0, pclath, cstack
  3205 ;; Tracked objects:
  3206 ;;		On entry : 0/0
  3207 ;;		On exit  : 0/0
  3208 ;;		Unchanged: 0/0
  3209 ;; Data sizes:     COMMON   BANK0   BANK1
  3210 ;;      Params:         0       4       0
  3211 ;;      Locals:         0      13       0
  3212 ;;      Temps:          0       1       0
  3213 ;;      Totals:         0      18       0
  3214 ;;Total ram usage:       18 bytes
  3215 ;; Hardware stack levels used: 1
  3216 ;; Hardware stack levels required when called: 4
  3217 ;; This function calls:
  3218 ;;		_vfprintf
  3219 ;; This function is called by:
  3220 ;;		_main
  3221 ;; This function uses a non-reentrant model
  3222 ;;
  3223                           
  3224     00C8                     _sprintf:	
  3225                           ;psect for function _sprintf
  3226                           
  3227                           
  3228                           ;incstack = 0
  3229                           ; Regs used in _sprintf: [wreg-fsr1h+status,2+status,0+pclath+cstack]
  3230                           ;sprintf@s stored from wreg
  3231     00C8  0020               	movlb	0	; select bank0
  3232     00C9  00B5               	movwf	sprintf@s
  3233     00CA                     l1646:
  3234     00CA  3031               	movlw	(low ((?_sprintf| 0+2)))& (0+255)
  3235     00CB  00B4               	movwf	sprintf@ap
  3236     00CC  0835               	movf	sprintf@s,w
  3237     00CD  00B6               	movwf	sprintf@f
  3238     00CE                     l1648:
  3239     00CE  01B8               	clrf	sprintf@f+2
  3240     00CF  01B9               	clrf	sprintf@f+3
  3241     00D0                     l1650:
  3242     00D0  01BF               	clrf	sprintf@f+9
  3243     00D1  01C0               	clrf	sprintf@f+10
  3244     00D2                     l1652:
  3245     00D2  0830               	movf	sprintf@fmt+1,w
  3246     00D3  00A9               	movwf	vfprintf@fmt+1
  3247     00D4  082F               	movf	sprintf@fmt,w
  3248     00D5  00A8               	movwf	vfprintf@fmt
  3249     00D6  3034               	movlw	(low (sprintf@ap| 0))& (0+255)
  3250     00D7  00AA               	movwf	vfprintf@ap
  3251     00D8  3036               	movlw	(low (sprintf@f| 0))& (0+255)
  3252     00D9  3180  208F  3180   	fcall	_vfprintf
  3253     00DC                     l1654:
  3254     00DC  0020               	movlb	0	; select bank0
  3255     00DD  0838               	movf	sprintf@f+2,w
  3256     00DE  0735               	addwf	sprintf@s,w
  3257     00DF  00B3               	movwf	??_sprintf
  3258     00E0  0833               	movf	??_sprintf,w
  3259     00E1  0086               	movwf	6
  3260     00E2  0187               	clrf	7
  3261     00E3  0181               	clrf	1
  3262     00E4                     l742:
  3263     00E4  0008               	return
  3264     00E5                     __end_of_sprintf:
  3265                           
  3266                           	psect	text14
  3267     008F                     __ptext14:	
  3268 ;; *************** function _vfprintf *****************
  3269 ;; Defined at:
  3270 ;;		line 1817 in file "C:\Program Files\Microchip\xc8\v2.45\pic\sources\c99\common\doprnt.c"
  3271 ;; Parameters:    Size  Location     Type
  3272 ;;  fp              1    wreg     PTR struct _IO_FILE
  3273 ;;		 -> sprintf@f(11), 
  3274 ;;  fmt             2    8[BANK0 ] PTR const unsigned char 
  3275 ;;		 -> STR_2(9), STR_1(10), 
  3276 ;;  ap              1   10[BANK0 ] PTR PTR void 
  3277 ;;		 -> sprintf@ap(1), 
  3278 ;; Auto vars:     Size  Location     Type
  3279 ;;  fp              1   12[BANK0 ] PTR struct _IO_FILE
  3280 ;;		 -> sprintf@f(11), 
  3281 ;;  cfmt            2   13[BANK0 ] PTR unsigned char 
  3282 ;;		 -> STR_2(9), STR_1(10), 
  3283 ;; Return value:  Size  Location     Type
  3284 ;;                  2    8[BANK0 ] int 
  3285 ;; Registers used:
  3286 ;;		wreg, fsr0l, fsr0h, fsr1l, fsr1h, status,2, status,0, pclath, cstack
  3287 ;; Tracked objects:
  3288 ;;		On entry : 0/0
  3289 ;;		On exit  : 0/0
  3290 ;;		Unchanged: 0/0
  3291 ;; Data sizes:     COMMON   BANK0   BANK1
  3292 ;;      Params:         0       3       0
  3293 ;;      Locals:         0       3       0
  3294 ;;      Temps:          0       1       0
  3295 ;;      Totals:         0       7       0
  3296 ;;Total ram usage:        7 bytes
  3297 ;; Hardware stack levels used: 1
  3298 ;; Hardware stack levels required when called: 3
  3299 ;; This function calls:
  3300 ;;		_vfpfcnvrt
  3301 ;; This function is called by:
  3302 ;;		_sprintf
  3303 ;; This function uses a non-reentrant model
  3304 ;;
  3305                           
  3306     008F                     _vfprintf:	
  3307                           ;psect for function _vfprintf
  3308                           
  3309                           
  3310                           ;incstack = 0
  3311                           ; Regs used in _vfprintf: [wreg-fsr1h+status,2+status,0+pclath+cstack]
  3312                           ;vfprintf@fp stored from wreg
  3313     008F  0020               	movlb	0	; select bank0
  3314     0090  00AC               	movwf	vfprintf@fp
  3315     0091                     l1576:
  3316                           
  3317                           ;C:\Program Files\Microchip\xc8\v2.45\pic\sources\c99\common\doprnt.c: 1817: int vfprint
      +                          f(FILE *fp, const char *fmt, va_list ap);C:\Program Files\Microchip\xc8\v2.45\pic\source
      +                          s\c99\common\doprnt.c: 1818: {;C:\Program Files\Microchip\xc8\v2.45\pic\sources\c99\comm
      +                          on\doprnt.c: 1820:     char *cfmt;;C:\Program Files\Microchip\xc8\v2.45\pic\sources\c99\
      +                          common\doprnt.c: 1822:     cfmt = (char *)fmt;
  3318     0091  0829               	movf	vfprintf@fmt+1,w
  3319     0092  00AE               	movwf	vfprintf@cfmt+1
  3320     0093  0828               	movf	vfprintf@fmt,w
  3321     0094  00AD               	movwf	vfprintf@cfmt
  3322                           
  3323                           ;C:\Program Files\Microchip\xc8\v2.45\pic\sources\c99\common\doprnt.c: 1826:     while (
      +                          *cfmt) {
  3324     0095  289E               	goto	l1580
  3325     0096                     l1578:
  3326                           
  3327                           ;C:\Program Files\Microchip\xc8\v2.45\pic\sources\c99\common\doprnt.c: 1830:    vfpfcnvr
      +                          t(fp, &cfmt, ap);
  3328     0096  302D               	movlw	(low (vfprintf@cfmt| 0))& (0+255)
  3329     0097  00F8               	movwf	vfpfcnvrt@fmt
  3330     0098  082A               	movf	vfprintf@ap,w
  3331     0099  00F9               	movwf	vfpfcnvrt@ap
  3332     009A  082C               	movf	vfprintf@fp,w
  3333     009B  3185  2502  3180   	fcall	_vfpfcnvrt
  3334     009E                     l1580:
  3335                           
  3336                           ;C:\Program Files\Microchip\xc8\v2.45\pic\sources\c99\common\doprnt.c: 1826:     while (
      +                          *cfmt) {
  3337     009E  0020               	movlb	0	; select bank0
  3338     009F  082D               	movf	vfprintf@cfmt,w
  3339     00A0  0084               	movwf	4
  3340     00A1  082E               	movf	vfprintf@cfmt+1,w
  3341     00A2  0085               	movwf	5
  3342     00A3  0012               	moviw fsr0++
  3343     00A4  1D03               	btfss	3,2
  3344     00A5  28A7               	goto	u1031
  3345     00A6  28A8               	goto	u1030
  3346     00A7                     u1031:
  3347     00A7  2896               	goto	l1578
  3348     00A8                     u1030:
  3349     00A8                     l1582:
  3350                           
  3351                           ;C:\Program Files\Microchip\xc8\v2.45\pic\sources\c99\common\doprnt.c: 1835:  return 0;
  3352     00A8  01A8               	clrf	?_vfprintf
  3353     00A9  01A9               	clrf	?_vfprintf+1
  3354     00AA                     l795:
  3355     00AA  0008               	return
  3356     00AB                     __end_of_vfprintf:
  3357                           
  3358                           	psect	text15
  3359     0502                     __ptext15:	
  3360 ;; *************** function _vfpfcnvrt *****************
  3361 ;; Defined at:
  3362 ;;		line 1177 in file "C:\Program Files\Microchip\xc8\v2.45\pic\sources\c99\common\doprnt.c"
  3363 ;; Parameters:    Size  Location     Type
  3364 ;;  fp              1    wreg     PTR struct _IO_FILE
  3365 ;;		 -> sprintf@f(11), 
  3366 ;;  fmt             1    8[COMMON] PTR PTR unsigned char 
  3367 ;;		 -> vfprintf@cfmt(2), 
  3368 ;;  ap              1    9[COMMON] PTR PTR void 
  3369 ;;		 -> sprintf@ap(1), 
  3370 ;; Auto vars:     Size  Location     Type
  3371 ;;  fp              1    0[BANK0 ] PTR struct _IO_FILE
  3372 ;;		 -> sprintf@f(11), 
  3373 ;;  convarg         4    1[BANK0 ] struct .
  3374 ;;  cp              2    5[BANK0 ] PTR unsigned char 
  3375 ;;		 -> STR_2(9), STR_1(10), 
  3376 ;;  c               1    7[BANK0 ] unsigned char 
  3377 ;;  done            1    0        _Bool 
  3378 ;; Return value:  Size  Location     Type
  3379 ;;                  1    wreg      void 
  3380 ;; Registers used:
  3381 ;;		wreg, fsr0l, fsr0h, fsr1l, fsr1h, status,2, status,0, pclath, cstack
  3382 ;; Tracked objects:
  3383 ;;		On entry : 0/0
  3384 ;;		On exit  : 0/0
  3385 ;;		Unchanged: 0/0
  3386 ;; Data sizes:     COMMON   BANK0   BANK1
  3387 ;;      Params:         2       0       0
  3388 ;;      Locals:         0       8       0
  3389 ;;      Temps:          4       0       0
  3390 ;;      Totals:         6       8       0
  3391 ;;Total ram usage:       14 bytes
  3392 ;; Hardware stack levels used: 1
  3393 ;; Hardware stack levels required when called: 2
  3394 ;; This function calls:
  3395 ;;		___lwdiv
  3396 ;;		___lwmod
  3397 ;;		_fputc
  3398 ;; This function is called by:
  3399 ;;		_vfprintf
  3400 ;; This function uses a non-reentrant model
  3401 ;;
  3402                           
  3403     0502                     _vfpfcnvrt:	
  3404                           ;psect for function _vfpfcnvrt
  3405                           
  3406                           
  3407                           ;incstack = 0
  3408                           ; Regs used in _vfpfcnvrt: [wreg-fsr1h+status,2+status,0+pclath+cstack]
  3409                           ;vfpfcnvrt@fp stored from wreg
  3410     0502  0020               	movlb	0	; select bank0
  3411     0503  00A0               	movwf	vfpfcnvrt@fp
  3412     0504                     l1448:
  3413                           
  3414                           ;C:\Program Files\Microchip\xc8\v2.45\pic\sources\c99\common\doprnt.c: 1177: vfpfcnvrt(F
      +                          ILE *fp, char *fmt[], va_list ap);C:\Program Files\Microchip\xc8\v2.45\pic\sources\c99\c
      +                          ommon\doprnt.c: 1178: {;C:\Program Files\Microchip\xc8\v2.45\pic\sources\c99\common\dopr
      +                          nt.c: 1179:     char c, *cp;;C:\Program Files\Microchip\xc8\v2.45\pic\sources\c99\common
      +                          \doprnt.c: 1180:     _Bool done;;C:\Program Files\Microchip\xc8\v2.45\pic\sources\c99\co
      +                          mmon\doprnt.c: 1188:  } convarg;;C:\Program Files\Microchip\xc8\v2.45\pic\sources\c99\co
      +                          mmon\doprnt.c: 1201:     if ((*fmt)[0] == '%') {
  3415     0504  0878               	movf	vfpfcnvrt@fmt,w
  3416     0505  0086               	movwf	6
  3417     0506  0187               	clrf	7
  3418     0507  3F40               	moviw [0]fsr1
  3419     0508  00FA               	movwf	??_vfpfcnvrt
  3420     0509  3F41               	moviw [1]fsr1
  3421     050A  00FB               	movwf	??_vfpfcnvrt+1
  3422     050B  087A               	movf	??_vfpfcnvrt,w
  3423     050C  0084               	movwf	4
  3424     050D  087B               	movf	??_vfpfcnvrt+1,w
  3425     050E  0085               	movwf	5
  3426     050F  0012               	moviw fsr0++
  3427     0510  3A25               	xorlw	37
  3428     0511  1D03               	btfss	3,2
  3429     0512  2D14               	goto	u911
  3430     0513  2D15               	goto	u910
  3431     0514                     u911:
  3432     0514  2DFC               	goto	l1506
  3433     0515                     u910:
  3434     0515                     l1450:
  3435                           
  3436                           ;C:\Program Files\Microchip\xc8\v2.45\pic\sources\c99\common\doprnt.c: 1202:         ++*
      +                          fmt;
  3437     0515  0878               	movf	vfpfcnvrt@fmt,w
  3438     0516  0086               	movwf	6
  3439     0517  0187               	clrf	7
  3440     0518  3001               	movlw	1
  3441     0519  0781               	addwf	1,f
  3442     051A  3141               	addfsr 1,1
  3443     051B  1803               	skipnc
  3444     051C  0A81               	incf	1,f
  3445     051D                     l1452:
  3446                           
  3447                           ;C:\Program Files\Microchip\xc8\v2.45\pic\sources\c99\common\doprnt.c: 1204:         fla
      +                          gs = width = 0;
  3448     051D  01DB               	clrf	_width
  3449     051E  01DC               	clrf	_width+1
  3450     051F  1003               	clrc
  3451     0520  3000               	movlw	0
  3452     0521  1803               	btfsc	3,0
  3453     0522  3001               	movlw	1
  3454     0523  00DF               	movwf	_flags
  3455     0524                     l1454:
  3456                           
  3457                           ;C:\Program Files\Microchip\xc8\v2.45\pic\sources\c99\common\doprnt.c: 1205:         pre
      +                          c = -1;
  3458     0524  30FF               	movlw	255
  3459     0525  00DD               	movwf	_prec
  3460     0526  30FF               	movlw	255
  3461     0527  00DE               	movwf	_prec+1
  3462     0528                     l1456:
  3463                           
  3464                           ;C:\Program Files\Microchip\xc8\v2.45\pic\sources\c99\common\doprnt.c: 1291:   cp = *fmt
      +                          ;
  3465     0528  0878               	movf	vfpfcnvrt@fmt,w
  3466     0529  0086               	movwf	6
  3467     052A  0187               	clrf	7
  3468     052B  3F40               	moviw [0]fsr1
  3469     052C  00A5               	movwf	vfpfcnvrt@cp
  3470     052D  3F41               	moviw [1]fsr1
  3471     052E  00A6               	movwf	vfpfcnvrt@cp+1
  3472     052F                     l1458:
  3473                           
  3474                           ;C:\Program Files\Microchip\xc8\v2.45\pic\sources\c99\common\doprnt.c: 1293:   c = *cp;
  3475     052F  0825               	movf	vfpfcnvrt@cp,w
  3476     0530  0084               	movwf	4
  3477     0531  0826               	movf	vfpfcnvrt@cp+1,w
  3478     0532  0085               	movwf	5
  3479     0533  0800               	movf	0,w	;code access
  3480     0534  00A7               	movwf	vfpfcnvrt@c
  3481                           
  3482                           ;C:\Program Files\Microchip\xc8\v2.45\pic\sources\c99\common\doprnt.c: 1294:   switch(c)
      +                           {
  3483     0535  2D40               	goto	l1468
  3484     0536                     l1460:
  3485                           
  3486                           ;C:\Program Files\Microchip\xc8\v2.45\pic\sources\c99\common\doprnt.c: 1298:     cp++;
  3487     0536  3001               	movlw	1
  3488     0537  07A5               	addwf	vfpfcnvrt@cp,f
  3489     0538  3000               	movlw	0
  3490     0539  3DA6               	addwfc	vfpfcnvrt@cp+1,f
  3491                           
  3492                           ;C:\Program Files\Microchip\xc8\v2.45\pic\sources\c99\common\doprnt.c: 1305:     break;
  3493     053A  2D50               	goto	l1470
  3494     053B                     l1462:
  3495                           
  3496                           ;C:\Program Files\Microchip\xc8\v2.45\pic\sources\c99\common\doprnt.c: 1350:     c = 'i'
      +                          ;
  3497     053B  3069               	movlw	105
  3498     053C  00A7               	movwf	vfpfcnvrt@c
  3499                           
  3500                           ;C:\Program Files\Microchip\xc8\v2.45\pic\sources\c99\common\doprnt.c: 1351:     break;
  3501     053D  2D50               	goto	l1470
  3502     053E                     l1464:
  3503                           
  3504                           ;C:\Program Files\Microchip\xc8\v2.45\pic\sources\c99\common\doprnt.c: 1353:     c = 0;
  3505     053E  01A7               	clrf	vfpfcnvrt@c
  3506                           
  3507                           ;C:\Program Files\Microchip\xc8\v2.45\pic\sources\c99\common\doprnt.c: 1354:     break;
  3508     053F  2D50               	goto	l1470
  3509     0540                     l1468:
  3510     0540  0827               	movf	vfpfcnvrt@c,w
  3511     0541  00FA               	movwf	??_vfpfcnvrt
  3512     0542  01FB               	clrf	??_vfpfcnvrt+1
  3513                           
  3514                           ; Switch on 2 bytes has been partitioned into a top level switch of size 1, and 1 sub-sw
      +                          itches
  3515                           ; Switch size 1, requested type "simple"
  3516                           ; Number of cases is 1, Range of values is 0 to 0
  3517                           ; switch strategies available:
  3518                           ; Name         Instructions Cycles
  3519                           ; simple_byte            4     3 (average)
  3520                           ; direct_byte            8     6 (fixed)
  3521                           ; jumptable            260     6 (fixed)
  3522                           ;	Chosen strategy is simple_byte
  3523     0543  087B               	movf	??_vfpfcnvrt+1,w
  3524     0544  3A00               	xorlw	0	; case 0
  3525     0545  1903               	skipnz
  3526     0546  2D48               	goto	l1872
  3527     0547  2D3E               	goto	l1464
  3528     0548                     l1872:
  3529                           
  3530                           ; Switch size 1, requested type "simple"
  3531                           ; Number of cases is 2, Range of values is 104 to 117
  3532                           ; switch strategies available:
  3533                           ; Name         Instructions Cycles
  3534                           ; simple_byte            7     4 (average)
  3535                           ; direct_byte           37     9 (fixed)
  3536                           ; jumptable            263     9 (fixed)
  3537                           ;	Chosen strategy is simple_byte
  3538     0548  087A               	movf	??_vfpfcnvrt,w
  3539     0549  3A68               	xorlw	104	; case 104
  3540     054A  1903               	skipnz
  3541     054B  2D36               	goto	l1460
  3542     054C  3A1D               	xorlw	29	; case 117
  3543     054D  1903               	skipnz
  3544     054E  2D3B               	goto	l1462
  3545     054F  2D3E               	goto	l1464
  3546     0550                     l1470:
  3547     0550  0825               	movf	vfpfcnvrt@cp,w
  3548     0551  0084               	movwf	4
  3549     0552  0826               	movf	vfpfcnvrt@cp+1,w
  3550     0553  0085               	movwf	5
  3551     0554  0012               	moviw fsr0++
  3552     0555  3A75               	xorlw	117
  3553     0556  1D03               	btfss	3,2
  3554     0557  2D59               	goto	u921
  3555     0558  2D5A               	goto	u920
  3556     0559                     u921:
  3557     0559  2DF3               	goto	l1502
  3558     055A                     u920:
  3559     055A  2D75               	goto	l1478
  3560     055B                     l1472:
  3561                           
  3562                           ;C:\Program Files\Microchip\xc8\v2.45\pic\sources\c99\common\doprnt.c: 1456:      convar
      +                          g.uint = (vfpf_uint_t)(unsigned int)(*(unsigned int *)__va_arg(*(unsigned int **)ap, (un
      +                          signed int)0));
  3563     055B  0879               	movf	vfpfcnvrt@ap,w
  3564     055C  0086               	movwf	6
  3565     055D  0187               	clrf	7
  3566     055E  0801               	movf	1,w
  3567     055F  0084               	movwf	4
  3568     0560  0185               	clrf	5
  3569     0561  3002               	movlw	2
  3570     0562  0781               	addwf	1,f
  3571     0563  3F00               	moviw [0]fsr0
  3572     0564  00A1               	movwf	vfpfcnvrt@convarg
  3573     0565  3F01               	moviw [1]fsr0
  3574     0566  00A2               	movwf	vfpfcnvrt@convarg+1
  3575                           
  3576                           ;C:\Program Files\Microchip\xc8\v2.45\pic\sources\c99\common\doprnt.c: 1457:      break;
  3577     0567  2D85               	goto	l1480
  3578     0568                     l1474:
  3579                           
  3580                           ;C:\Program Files\Microchip\xc8\v2.45\pic\sources\c99\common\doprnt.c: 1460:      convar
      +                          g.uint = (vfpf_uint_t)(unsigned short)(*(unsigned int *)__va_arg(*(unsigned int **)ap, (
      +                          unsigned int)0));
  3581     0568  0879               	movf	vfpfcnvrt@ap,w
  3582     0569  0086               	movwf	6
  3583     056A  0187               	clrf	7
  3584     056B  0801               	movf	1,w
  3585     056C  0084               	movwf	4
  3586     056D  0185               	clrf	5
  3587     056E  3002               	movlw	2
  3588     056F  0781               	addwf	1,f
  3589     0570  3F00               	moviw [0]fsr0
  3590     0571  00A1               	movwf	vfpfcnvrt@convarg
  3591     0572  3F01               	moviw [1]fsr0
  3592     0573  00A2               	movwf	vfpfcnvrt@convarg+1
  3593                           
  3594                           ;C:\Program Files\Microchip\xc8\v2.45\pic\sources\c99\common\doprnt.c: 1461:      break;
  3595     0574  2D85               	goto	l1480
  3596     0575                     l1478:
  3597     0575  0827               	movf	vfpfcnvrt@c,w
  3598     0576  00FA               	movwf	??_vfpfcnvrt
  3599     0577  01FB               	clrf	??_vfpfcnvrt+1
  3600                           
  3601                           ; Switch on 2 bytes has been partitioned into a top level switch of size 1, and 1 sub-sw
      +                          itches
  3602                           ; Switch size 1, requested type "simple"
  3603                           ; Number of cases is 1, Range of values is 0 to 0
  3604                           ; switch strategies available:
  3605                           ; Name         Instructions Cycles
  3606                           ; simple_byte            4     3 (average)
  3607                           ; direct_byte            8     6 (fixed)
  3608                           ; jumptable            260     6 (fixed)
  3609                           ;	Chosen strategy is simple_byte
  3610     0578  087B               	movf	??_vfpfcnvrt+1,w
  3611     0579  3A00               	xorlw	0	; case 0
  3612     057A  1903               	skipnz
  3613     057B  2D7D               	goto	l1874
  3614     057C  2D85               	goto	l1480
  3615     057D                     l1874:
  3616                           
  3617                           ; Switch size 1, requested type "simple"
  3618                           ; Number of cases is 2, Range of values is 104 to 105
  3619                           ; switch strategies available:
  3620                           ; Name         Instructions Cycles
  3621                           ; simple_byte            7     4 (average)
  3622                           ; direct_byte           13     9 (fixed)
  3623                           ; jumptable            263     9 (fixed)
  3624                           ;	Chosen strategy is simple_byte
  3625     057D  087A               	movf	??_vfpfcnvrt,w
  3626     057E  3A68               	xorlw	104	; case 104
  3627     057F  1903               	skipnz
  3628     0580  2D68               	goto	l1474
  3629     0581  3A01               	xorlw	1	; case 105
  3630     0582  1903               	skipnz
  3631     0583  2D5B               	goto	l1472
  3632     0584  2D85               	goto	l1480
  3633     0585                     l1480:
  3634                           
  3635                           ;C:\Program Files\Microchip\xc8\v2.45\pic\sources\c99\common\doprnt.c: 1497:    *fmt = c
      +                          p+1;
  3636     0585  0825               	movf	vfpfcnvrt@cp,w
  3637     0586  3E01               	addlw	1
  3638     0587  00FA               	movwf	??_vfpfcnvrt
  3639     0588  3000               	movlw	0
  3640     0589  3D26               	addwfc	vfpfcnvrt@cp+1,w
  3641     058A  00FB               	movwf	??_vfpfcnvrt+1
  3642     058B  0878               	movf	vfpfcnvrt@fmt,w
  3643     058C  0086               	movwf	6
  3644     058D  0187               	clrf	7
  3645     058E  087A               	movf	??_vfpfcnvrt,w
  3646     058F  3FC0               	movwi [0]fsr1
  3647     0590  087B               	movf	??_vfpfcnvrt+1,w
  3648     0591  3FC1               	movwi [1]fsr1
  3649                           
  3650                           ;C:\Program Files\Microchip\xc8\v2.45\pic\sources\c99\common\doprnt.c: 1498:    switch (
      +                          *cp) {
  3651     0592  2DE2               	goto	l1500
  3652     0593                     l1482:
  3653                           
  3654                           ;C:\Program Files\Microchip\xc8\v2.45\pic\sources\c99\common\doprnt.c: 1525:      c = si
      +                          zeof(dbuf);
  3655     0593  3020               	movlw	32
  3656     0594  00A7               	movwf	vfpfcnvrt@c
  3657     0595                     l1484:
  3658                           
  3659                           ;C:\Program Files\Microchip\xc8\v2.45\pic\sources\c99\common\doprnt.c: 1527:       dbuf[
      +                          --c] = (convarg.uint % 10) + '0';
  3660     0595  3001               	movlw	1
  3661     0596  02A7               	subwf	vfpfcnvrt@c,f
  3662     0597  0827               	movf	vfpfcnvrt@c,w
  3663     0598  3EA0               	addlw	(low (_dbuf| 0))& (0+255)
  3664     0599  0086               	movwf	6
  3665     059A  0187               	clrf	7
  3666     059B  300A               	movlw	10
  3667     059C  00F0               	movwf	___lwmod@divisor
  3668     059D  3000               	movlw	0
  3669     059E  00F1               	movwf	___lwmod@divisor+1
  3670     059F  0822               	movf	vfpfcnvrt@convarg+1,w
  3671     05A0  00F3               	movwf	___lwmod@dividend+1
  3672     05A1  0821               	movf	vfpfcnvrt@convarg,w
  3673     05A2  00F2               	movwf	___lwmod@dividend
  3674     05A3  3181  21FE  3185   	fcall	___lwmod
  3675     05A6  0870               	movf	?___lwmod,w
  3676     05A7  3E30               	addlw	48
  3677     05A8  0081               	movwf	1
  3678     05A9                     l1486:
  3679                           
  3680                           ;C:\Program Files\Microchip\xc8\v2.45\pic\sources\c99\common\doprnt.c: 1528:       conva
      +                          rg.uint /= 10;
  3681     05A9  300A               	movlw	10
  3682     05AA  00F0               	movwf	___lwdiv@divisor
  3683     05AB  3000               	movlw	0
  3684     05AC  00F1               	movwf	___lwdiv@divisor+1
  3685     05AD  0020               	movlb	0	; select bank0
  3686     05AE  0822               	movf	vfpfcnvrt@convarg+1,w
  3687     05AF  00F3               	movwf	___lwdiv@dividend+1
  3688     05B0  0821               	movf	vfpfcnvrt@convarg,w
  3689     05B1  00F2               	movwf	___lwdiv@dividend
  3690     05B2  3182  226A  3185   	fcall	___lwdiv
  3691     05B5  0871               	movf	?___lwdiv+1,w
  3692     05B6  0020               	movlb	0	; select bank0
  3693     05B7  00A2               	movwf	vfpfcnvrt@convarg+1
  3694     05B8  0870               	movf	?___lwdiv,w
  3695     05B9  00A1               	movwf	vfpfcnvrt@convarg
  3696     05BA                     l1488:
  3697                           
  3698                           ;C:\Program Files\Microchip\xc8\v2.45\pic\sources\c99\common\doprnt.c: 1532:      } whil
      +                          e (convarg.uint != 0 && c != 0);
  3699     05BA  0821               	movf	vfpfcnvrt@convarg,w
  3700     05BB  0422               	iorwf	vfpfcnvrt@convarg+1,w
  3701     05BC  1903               	btfsc	3,2
  3702     05BD  2DBF               	goto	u931
  3703     05BE  2DC0               	goto	u930
  3704     05BF                     u931:
  3705     05BF  2DDB               	goto	l1496
  3706     05C0                     u930:
  3707     05C0                     l1490:
  3708     05C0  0827               	movf	vfpfcnvrt@c,w
  3709     05C1  1D03               	btfss	3,2
  3710     05C2  2DC4               	goto	u941
  3711     05C3  2DC5               	goto	u940
  3712     05C4                     u941:
  3713     05C4  2D95               	goto	l1484
  3714     05C5                     u940:
  3715     05C5  2DDB               	goto	l1496
  3716     05C6                     l1492:
  3717                           
  3718                           ;C:\Program Files\Microchip\xc8\v2.45\pic\sources\c99\common\doprnt.c: 1534:       fputc
      +                          (dbuf[c++], fp);
  3719     05C6  0827               	movf	vfpfcnvrt@c,w
  3720     05C7  3EA0               	addlw	(low (_dbuf| 0))& (0+255)
  3721     05C8  0086               	movwf	6
  3722     05C9  0187               	clrf	7
  3723     05CA  0801               	movf	1,w
  3724     05CB  00FA               	movwf	??_vfpfcnvrt
  3725     05CC  01FB               	clrf	??_vfpfcnvrt+1
  3726     05CD  087A               	movf	??_vfpfcnvrt,w
  3727     05CE  00F0               	movwf	fputc@c
  3728     05CF  087B               	movf	??_vfpfcnvrt+1,w
  3729     05D0  00F1               	movwf	fputc@c+1
  3730     05D1  0820               	movf	vfpfcnvrt@fp,w
  3731     05D2  00F2               	movwf	fputc@fp
  3732     05D3  3182  22A6  3185   	fcall	_fputc
  3733     05D6                     l1494:
  3734     05D6  3001               	movlw	1
  3735     05D7  00FA               	movwf	??_vfpfcnvrt
  3736     05D8  087A               	movf	??_vfpfcnvrt,w
  3737     05D9  0020               	movlb	0	; select bank0
  3738     05DA  07A7               	addwf	vfpfcnvrt@c,f
  3739     05DB                     l1496:
  3740                           
  3741                           ;C:\Program Files\Microchip\xc8\v2.45\pic\sources\c99\common\doprnt.c: 1533:      while 
      +                          (c != sizeof(dbuf)) {
  3742     05DB  3020               	movlw	32
  3743     05DC  0627               	xorwf	vfpfcnvrt@c,w
  3744     05DD  1D03               	btfss	3,2
  3745     05DE  2DE0               	goto	u951
  3746     05DF  2DE1               	goto	u950
  3747     05E0                     u951:
  3748     05E0  2DC6               	goto	l1492
  3749     05E1                     u950:
  3750     05E1  2E14               	goto	l788
  3751     05E2                     l1500:
  3752     05E2  0825               	movf	vfpfcnvrt@cp,w
  3753     05E3  0084               	movwf	4
  3754     05E4  0826               	movf	vfpfcnvrt@cp+1,w
  3755     05E5  0085               	movwf	5
  3756     05E6  0800               	movf	0,w	;code access
  3757     05E7  00FA               	movwf	??_vfpfcnvrt
  3758     05E8  01FB               	clrf	??_vfpfcnvrt+1
  3759                           
  3760                           ; Switch on 2 bytes has been partitioned into a top level switch of size 1, and 1 sub-sw
      +                          itches
  3761                           ; Switch size 1, requested type "simple"
  3762                           ; Number of cases is 1, Range of values is 0 to 0
  3763                           ; switch strategies available:
  3764                           ; Name         Instructions Cycles
  3765                           ; simple_byte            4     3 (average)
  3766                           ; direct_byte            8     6 (fixed)
  3767                           ; jumptable            260     6 (fixed)
  3768                           ;	Chosen strategy is simple_byte
  3769     05E9  087B               	movf	??_vfpfcnvrt+1,w
  3770     05EA  3A00               	xorlw	0	; case 0
  3771     05EB  1903               	skipnz
  3772     05EC  2DEE               	goto	l1876
  3773     05ED  2DF3               	goto	l1502
  3774     05EE                     l1876:
  3775                           
  3776                           ; Switch size 1, requested type "simple"
  3777                           ; Number of cases is 1, Range of values is 117 to 117
  3778                           ; switch strategies available:
  3779                           ; Name         Instructions Cycles
  3780                           ; simple_byte            4     3 (average)
  3781                           ; direct_byte           11     9 (fixed)
  3782                           ; jumptable            263     9 (fixed)
  3783                           ;	Chosen strategy is simple_byte
  3784     05EE  087A               	movf	??_vfpfcnvrt,w
  3785     05EF  3A75               	xorlw	117	; case 117
  3786     05F0  1903               	skipnz
  3787     05F1  2D93               	goto	l1482
  3788     05F2  2DF3               	goto	l1502
  3789     05F3                     l1502:
  3790                           
  3791                           ;C:\Program Files\Microchip\xc8\v2.45\pic\sources\c99\common\doprnt.c: 1806:         ++*
      +                          fmt;
  3792     05F3  0878               	movf	vfpfcnvrt@fmt,w
  3793     05F4  0086               	movwf	6
  3794     05F5  0187               	clrf	7
  3795     05F6  3001               	movlw	1
  3796     05F7  0781               	addwf	1,f
  3797     05F8  3141               	addfsr 1,1
  3798     05F9  1803               	skipnc
  3799     05FA  0A81               	incf	1,f
  3800     05FB  2E14               	goto	l788
  3801     05FC                     l1506:
  3802                           
  3803                           ;C:\Program Files\Microchip\xc8\v2.45\pic\sources\c99\common\doprnt.c: 1811:     fputc((
      +                          int)(*fmt)[0], fp);
  3804     05FC  0878               	movf	vfpfcnvrt@fmt,w
  3805     05FD  0086               	movwf	6
  3806     05FE  0187               	clrf	7
  3807     05FF  3F40               	moviw [0]fsr1
  3808     0600  00FA               	movwf	??_vfpfcnvrt
  3809     0601  3F41               	moviw [1]fsr1
  3810     0602  00FB               	movwf	??_vfpfcnvrt+1
  3811     0603  087A               	movf	??_vfpfcnvrt,w
  3812     0604  0084               	movwf	4
  3813     0605  087B               	movf	??_vfpfcnvrt+1,w
  3814     0606  0085               	movwf	5
  3815     0607  0800               	movf	0,w	;code access
  3816     0608  00FC               	movwf	??_vfpfcnvrt+2
  3817     0609  01FD               	clrf	??_vfpfcnvrt+3
  3818     060A  087C               	movf	??_vfpfcnvrt+2,w
  3819     060B  00F0               	movwf	fputc@c
  3820     060C  087D               	movf	??_vfpfcnvrt+3,w
  3821     060D  00F1               	movwf	fputc@c+1
  3822     060E  0820               	movf	vfpfcnvrt@fp,w
  3823     060F  00F2               	movwf	fputc@fp
  3824     0610  3182  22A6  3185   	fcall	_fputc
  3825     0613  2DF3               	goto	l1502
  3826     0614                     l788:
  3827     0614  0008               	return
  3828     0615                     __end_of_vfpfcnvrt:
  3829                           
  3830                           	psect	text16
  3831     02A6                     __ptext16:	
  3832 ;; *************** function _fputc *****************
  3833 ;; Defined at:
  3834 ;;		line 8 in file "C:\Program Files\Microchip\xc8\v2.45\pic\sources\c99\common\nf_fputc.c"
  3835 ;; Parameters:    Size  Location     Type
  3836 ;;  c               2    0[COMMON] int 
  3837 ;;  fp              1    2[COMMON] PTR struct _IO_FILE
  3838 ;;		 -> sprintf@f(11), 
  3839 ;; Auto vars:     Size  Location     Type
  3840 ;;		None
  3841 ;; Return value:  Size  Location     Type
  3842 ;;                  2    0[COMMON] int 
  3843 ;; Registers used:
  3844 ;;		wreg, fsr0l, fsr0h, fsr1l, fsr1h, status,2, status,0, pclath, cstack
  3845 ;; Tracked objects:
  3846 ;;		On entry : 0/0
  3847 ;;		On exit  : 0/0
  3848 ;;		Unchanged: 0/0
  3849 ;; Data sizes:     COMMON   BANK0   BANK1
  3850 ;;      Params:         3       0       0
  3851 ;;      Locals:         0       0       0
  3852 ;;      Temps:          5       0       0
  3853 ;;      Totals:         8       0       0
  3854 ;;Total ram usage:        8 bytes
  3855 ;; Hardware stack levels used: 1
  3856 ;; Hardware stack levels required when called: 1
  3857 ;; This function calls:
  3858 ;;		_putch
  3859 ;; This function is called by:
  3860 ;;		_vfpfcnvrt
  3861 ;; This function uses a non-reentrant model
  3862 ;;
  3863                           
  3864     02A6                     _fputc:	
  3865                           ;psect for function _fputc
  3866                           
  3867     02A6                     l1428:	
  3868                           ;incstack = 0
  3869                           ; Regs used in _fputc: [wreg-fsr1h+status,2+status,0+pclath+cstack]
  3870                           
  3871     02A6  0872               	movf	fputc@fp,w
  3872     02A7  1903               	btfsc	3,2
  3873     02A8  2AAA               	goto	u871
  3874     02A9  2AAB               	goto	u870
  3875     02AA                     u871:
  3876     02AA  2AB0               	goto	l1432
  3877     02AB                     u870:
  3878     02AB                     l1430:
  3879     02AB  0872               	movf	fputc@fp,w
  3880     02AC  1D03               	btfss	3,2
  3881     02AD  2AAF               	goto	u881
  3882     02AE  2AB0               	goto	u880
  3883     02AF                     u881:
  3884     02AF  2AB5               	goto	l1434
  3885     02B0                     u880:
  3886     02B0                     l1432:
  3887     02B0  0870               	movf	fputc@c,w
  3888     02B1  3180  202C  3182   	fcall	_putch
  3889     02B4  2AF5               	goto	l807
  3890     02B5                     l1434:
  3891     02B5  0872               	movf	fputc@fp,w
  3892     02B6  3E09               	addlw	9
  3893     02B7  0086               	movwf	6
  3894     02B8  0187               	clrf	7
  3895     02B9  0016               	moviw fsr1++
  3896     02BA  0401               	iorwf	1,w
  3897     02BB  1903               	btfsc	3,2
  3898     02BC  2ABE               	goto	u891
  3899     02BD  2ABF               	goto	u890
  3900     02BE                     u891:
  3901     02BE  2ADD               	goto	l1438
  3902     02BF                     u890:
  3903     02BF                     l1436:
  3904     02BF  0872               	movf	fputc@fp,w
  3905     02C0  3E09               	addlw	9
  3906     02C1  0086               	movwf	6
  3907     02C2  0187               	clrf	7
  3908     02C3  3F40               	moviw [0]fsr1
  3909     02C4  00F3               	movwf	??_fputc
  3910     02C5  3F41               	moviw [1]fsr1
  3911     02C6  00F4               	movwf	??_fputc+1
  3912     02C7  0872               	movf	fputc@fp,w
  3913     02C8  3E02               	addlw	2
  3914     02C9  0086               	movwf	6
  3915     02CA  0187               	clrf	7
  3916     02CB  3F40               	moviw [0]fsr1
  3917     02CC  00F5               	movwf	??_fputc+2
  3918     02CD  3F41               	moviw [1]fsr1
  3919     02CE  00F6               	movwf	??_fputc+3
  3920     02CF  0876               	movf	??_fputc+3,w
  3921     02D0  3A80               	xorlw	128
  3922     02D1  00F7               	movwf	??_fputc+4
  3923     02D2  0874               	movf	??_fputc+1,w
  3924     02D3  3A80               	xorlw	128
  3925     02D4  0277               	subwf	??_fputc+4,w
  3926     02D5  1D03               	skipz
  3927     02D6  2AD9               	goto	u905
  3928     02D7  0873               	movf	??_fputc,w
  3929     02D8  0275               	subwf	??_fputc+2,w
  3930     02D9                     u905:
  3931     02D9  1803               	skipnc
  3932     02DA  2ADC               	goto	u901
  3933     02DB  2ADD               	goto	u900
  3934     02DC                     u901:
  3935     02DC  2AF5               	goto	l807
  3936     02DD                     u900:
  3937     02DD                     l1438:
  3938     02DD  0872               	movf	fputc@fp,w
  3939     02DE  0086               	movwf	6
  3940     02DF  0187               	clrf	7
  3941     02E0  0872               	movf	fputc@fp,w
  3942     02E1  3E02               	addlw	2
  3943     02E2  0084               	movwf	4
  3944     02E3  0185               	clrf	5
  3945     02E4  0800               	movf	0,w
  3946     02E5  0701               	addwf	1,w
  3947     02E6  00F3               	movwf	??_fputc
  3948     02E7  0873               	movf	??_fputc,w
  3949     02E8  0086               	movwf	6
  3950     02E9  0187               	clrf	7
  3951     02EA  0870               	movf	fputc@c,w
  3952     02EB  0081               	movwf	1
  3953     02EC                     l1440:
  3954     02EC  0872               	movf	fputc@fp,w
  3955     02ED  3E02               	addlw	2
  3956     02EE  0086               	movwf	6
  3957     02EF  0187               	clrf	7
  3958     02F0  3001               	movlw	1
  3959     02F1  0781               	addwf	1,f
  3960     02F2  3141               	addfsr 1,1
  3961     02F3  1803               	skipnc
  3962     02F4  0A81               	incf	1,f
  3963     02F5                     l807:
  3964     02F5  0008               	return
  3965     02F6                     __end_of_fputc:
  3966                           
  3967                           	psect	text17
  3968     002C                     __ptext17:	
  3969 ;; *************** function _putch *****************
  3970 ;; Defined at:
  3971 ;;		line 7 in file "C:\Program Files\Microchip\xc8\v2.45\pic\sources\c99\common\putch.c"
  3972 ;; Parameters:    Size  Location     Type
  3973 ;;  c               1    wreg     unsigned char 
  3974 ;; Auto vars:     Size  Location     Type
  3975 ;;  c               1    0[COMMON] unsigned char 
  3976 ;; Return value:  Size  Location     Type
  3977 ;;                  1    wreg      void 
  3978 ;; Registers used:
  3979 ;;		wreg
  3980 ;; Tracked objects:
  3981 ;;		On entry : 0/0
  3982 ;;		On exit  : 0/0
  3983 ;;		Unchanged: 0/0
  3984 ;; Data sizes:     COMMON   BANK0   BANK1
  3985 ;;      Params:         0       0       0
  3986 ;;      Locals:         0       0       0
  3987 ;;      Temps:          0       0       0
  3988 ;;      Totals:         0       0       0
  3989 ;;Total ram usage:        0 bytes
  3990 ;; Hardware stack levels used: 1
  3991 ;; This function calls:
  3992 ;;		Nothing
  3993 ;; This function is called by:
  3994 ;;		_fputc
  3995 ;; This function uses a non-reentrant model
  3996 ;;
  3997                           
  3998     002C                     _putch:	
  3999                           ;psect for function _putch
  4000                           
  4001     002C                     l818:	
  4002                           ;incstack = 0
  4003                           ; Regs used in _putch: [wreg]
  4004                           
  4005     002C  0008               	return
  4006     002D                     __end_of_putch:
  4007                           
  4008                           	psect	text18
  4009     01FE                     __ptext18:	
  4010 ;; *************** function ___lwmod *****************
  4011 ;; Defined at:
  4012 ;;		line 5 in file "C:\Program Files\Microchip\xc8\v2.45\pic\sources\c99\common\lwmod.c"
  4013 ;; Parameters:    Size  Location     Type
  4014 ;;  divisor         2    0[COMMON] unsigned int 
  4015 ;;  dividend        2    2[COMMON] unsigned int 
  4016 ;; Auto vars:     Size  Location     Type
  4017 ;;  counter         1    5[COMMON] unsigned char 
  4018 ;; Return value:  Size  Location     Type
  4019 ;;                  2    0[COMMON] unsigned int 
  4020 ;; Registers used:
  4021 ;;		wreg, status,2, status,0
  4022 ;; Tracked objects:
  4023 ;;		On entry : 0/0
  4024 ;;		On exit  : 0/0
  4025 ;;		Unchanged: 0/0
  4026 ;; Data sizes:     COMMON   BANK0   BANK1
  4027 ;;      Params:         4       0       0
  4028 ;;      Locals:         1       0       0
  4029 ;;      Temps:          1       0       0
  4030 ;;      Totals:         6       0       0
  4031 ;;Total ram usage:        6 bytes
  4032 ;; Hardware stack levels used: 1
  4033 ;; This function calls:
  4034 ;;		Nothing
  4035 ;; This function is called by:
  4036 ;;		_vfpfcnvrt
  4037 ;; This function uses a non-reentrant model
  4038 ;;
  4039                           
  4040     01FE                     ___lwmod:	
  4041                           ;psect for function ___lwmod
  4042                           
  4043     01FE                     l1406:	
  4044                           ;incstack = 0
  4045                           ; Regs used in ___lwmod: [wreg+status,2+status,0]
  4046                           
  4047     01FE  0870               	movf	___lwmod@divisor,w
  4048     01FF  0471               	iorwf	___lwmod@divisor+1,w
  4049     0200  1903               	btfsc	3,2
  4050     0201  2A03               	goto	u811
  4051     0202  2A04               	goto	u810
  4052     0203                     u811:
  4053     0203  2A2D               	goto	l1424
  4054     0204                     u810:
  4055     0204                     l1408:
  4056     0204  01F5               	clrf	___lwmod@counter
  4057     0205  0AF5               	incf	___lwmod@counter,f
  4058     0206  2A10               	goto	l1414
  4059     0207                     l1410:
  4060     0207  3001               	movlw	1
  4061     0208                     u825:
  4062     0208  35F0               	lslf	___lwmod@divisor,f
  4063     0209  0DF1               	rlf	___lwmod@divisor+1,f
  4064     020A  0B89               	decfsz	9,f
  4065     020B  2A08               	goto	u825
  4066     020C                     l1412:
  4067     020C  3001               	movlw	1
  4068     020D  00F4               	movwf	??___lwmod
  4069     020E  0874               	movf	??___lwmod,w
  4070     020F  07F5               	addwf	___lwmod@counter,f
  4071     0210                     l1414:
  4072     0210  1FF1               	btfss	___lwmod@divisor+1,7
  4073     0211  2A13               	goto	u831
  4074     0212  2A14               	goto	u830
  4075     0213                     u831:
  4076     0213  2A07               	goto	l1410
  4077     0214                     u830:
  4078     0214                     l1416:
  4079     0214  0871               	movf	___lwmod@divisor+1,w
  4080     0215  0273               	subwf	___lwmod@dividend+1,w
  4081     0216  1D03               	skipz
  4082     0217  2A1A               	goto	u845
  4083     0218  0870               	movf	___lwmod@divisor,w
  4084     0219  0272               	subwf	___lwmod@dividend,w
  4085     021A                     u845:
  4086     021A  1C03               	skipc
  4087     021B  2A1D               	goto	u841
  4088     021C  2A1E               	goto	u840
  4089     021D                     u841:
  4090     021D  2A22               	goto	l1420
  4091     021E                     u840:
  4092     021E                     l1418:
  4093     021E  0870               	movf	___lwmod@divisor,w
  4094     021F  02F2               	subwf	___lwmod@dividend,f
  4095     0220  0871               	movf	___lwmod@divisor+1,w
  4096     0221  3BF3               	subwfb	___lwmod@dividend+1,f
  4097     0222                     l1420:
  4098     0222  3001               	movlw	1
  4099     0223                     u855:
  4100     0223  36F1               	lsrf	___lwmod@divisor+1,f
  4101     0224  0CF0               	rrf	___lwmod@divisor,f
  4102     0225  0B89               	decfsz	9,f
  4103     0226  2A23               	goto	u855
  4104     0227                     l1422:
  4105     0227  3001               	movlw	1
  4106     0228  02F5               	subwf	___lwmod@counter,f
  4107     0229  1D03               	btfss	3,2
  4108     022A  2A2C               	goto	u861
  4109     022B  2A2D               	goto	u860
  4110     022C                     u861:
  4111     022C  2A14               	goto	l1416
  4112     022D                     u860:
  4113     022D                     l1424:
  4114     022D  0873               	movf	___lwmod@dividend+1,w
  4115     022E  00F1               	movwf	?___lwmod+1
  4116     022F  0872               	movf	___lwmod@dividend,w
  4117     0230  00F0               	movwf	?___lwmod
  4118     0231                     l569:
  4119     0231  0008               	return
  4120     0232                     __end_of___lwmod:
  4121                           
  4122                           	psect	text19
  4123     00AB                     __ptext19:	
  4124 ;; *************** function _set_osc_freq *****************
  4125 ;; Defined at:
  4126 ;;		line 12 in file "C:/Users/saksh/MPLABXProjects/test2.X/oscillator.c"
  4127 ;; Parameters:    Size  Location     Type
  4128 ;;  freq            1    wreg     enum E2581
  4129 ;; Auto vars:     Size  Location     Type
  4130 ;;  freq            1    0[COMMON] enum E2581
  4131 ;;  frequency       1    1[COMMON] unsigned char 
  4132 ;; Return value:  Size  Location     Type
  4133 ;;                  1    wreg      void 
  4134 ;; Registers used:
  4135 ;;		wreg, status,2, status,0
  4136 ;; Tracked objects:
  4137 ;;		On entry : 0/0
  4138 ;;		On exit  : 0/0
  4139 ;;		Unchanged: 0/0
  4140 ;; Data sizes:     COMMON   BANK0   BANK1
  4141 ;;      Params:         0       0       0
  4142 ;;      Locals:         2       0       0
  4143 ;;      Temps:          0       0       0
  4144 ;;      Totals:         2       0       0
  4145 ;;Total ram usage:        2 bytes
  4146 ;; Hardware stack levels used: 1
  4147 ;; This function calls:
  4148 ;;		Nothing
  4149 ;; This function is called by:
  4150 ;;		_main
  4151 ;; This function uses a non-reentrant model
  4152 ;;
  4153                           
  4154     00AB                     _set_osc_freq:	
  4155                           ;psect for function _set_osc_freq
  4156                           
  4157                           
  4158                           ;incstack = 0
  4159                           ; Regs used in _set_osc_freq: [wreg+status,2+status,0]
  4160                           ;set_osc_freq@freq stored from wreg
  4161     00AB  00F0               	movwf	set_osc_freq@freq
  4162     00AC                     l1590:
  4163                           
  4164                           ;C:/Users/saksh/MPLABXProjects/test2.X/oscillator.c: 12: void set_osc_freq(Internal_Osc_
      +                          Freq_Type freq);C:/Users/saksh/MPLABXProjects/test2.X/oscillator.c: 13: {;C:/Users/saksh
      +                          /MPLABXProjects/test2.X/oscillator.c: 14:     uint8_t frequency = (uint8_t)freq;
  4165     00AC  0870               	movf	set_osc_freq@freq,w
  4166     00AD  00F1               	movwf	set_osc_freq@frequency
  4167     00AE                     l1592:
  4168                           
  4169                           ;C:/Users/saksh/MPLABXProjects/test2.X/oscillator.c: 16:     OSCCONbits.SCS = 0b10;
  4170     00AE  0021               	movlb	1	; select bank1
  4171     00AF  0819               	movf	25,w	;volatile
  4172     00B0  39FC               	andlw	-4
  4173     00B1  3802               	iorlw	2
  4174     00B2  0099               	movwf	25	;volatile
  4175     00B3                     l1594:
  4176                           
  4177                           ;C:/Users/saksh/MPLABXProjects/test2.X/oscillator.c: 18:     if(frequency == 0)
  4178     00B3  0871               	movf	set_osc_freq@frequency,w
  4179     00B4  1D03               	btfss	3,2
  4180     00B5  28B7               	goto	u1051
  4181     00B6  28B8               	goto	u1050
  4182     00B7                     u1051:
  4183     00B7  28BD               	goto	l187
  4184     00B8                     u1050:
  4185     00B8                     l183:
  4186     00B8  1C9A               	btfss	26,1	;volatile
  4187     00B9  28BB               	goto	u1061
  4188     00BA  28BC               	goto	u1060
  4189     00BB                     u1061:
  4190     00BB  28B8               	goto	l183
  4191     00BC                     u1060:
  4192     00BC  28C5               	goto	l1598
  4193     00BD                     l187:
  4194     00BD  1E1A               	btfss	26,4	;volatile
  4195     00BE  28C0               	goto	u1071
  4196     00BF  28C1               	goto	u1070
  4197     00C0                     u1071:
  4198     00C0  28BD               	goto	l187
  4199     00C1                     u1070:
  4200     00C1                     l190:
  4201     00C1  1E1A               	btfss	26,4	;volatile
  4202     00C2  28C4               	goto	u1081
  4203     00C3  28C5               	goto	u1080
  4204     00C4                     u1081:
  4205     00C4  28C1               	goto	l190
  4206     00C5                     u1080:
  4207     00C5                     l1598:
  4208                           
  4209                           ;C:/Users/saksh/MPLABXProjects/test2.X/oscillator.c: 27:     OSCCONbits.IRCF = 0b1111;
  4210     00C5  3078               	movlw	120
  4211     00C6  0499               	iorwf	25,f	;volatile
  4212     00C7                     l193:
  4213     00C7  0008               	return
  4214     00C8                     __end_of_set_osc_freq:
  4215                           
  4216                           	psect	text20
  4217     00E5                     __ptext20:	
  4218 ;; *************** function _delay *****************
  4219 ;; Defined at:
  4220 ;;		line 32 in file "main.c"
  4221 ;; Parameters:    Size  Location     Type
  4222 ;;  val             4    0[COMMON] unsigned long 
  4223 ;; Auto vars:     Size  Location     Type
  4224 ;;		None
  4225 ;; Return value:  Size  Location     Type
  4226 ;;                  1    wreg      void 
  4227 ;; Registers used:
  4228 ;;		wreg, status,2, status,0
  4229 ;; Tracked objects:
  4230 ;;		On entry : 0/0
  4231 ;;		On exit  : 0/0
  4232 ;;		Unchanged: 0/0
  4233 ;; Data sizes:     COMMON   BANK0   BANK1
  4234 ;;      Params:         4       0       0
  4235 ;;      Locals:         0       0       0
  4236 ;;      Temps:          4       0       0
  4237 ;;      Totals:         8       0       0
  4238 ;;Total ram usage:        8 bytes
  4239 ;; Hardware stack levels used: 1
  4240 ;; This function calls:
  4241 ;;		Nothing
  4242 ;; This function is called by:
  4243 ;;		_main
  4244 ;; This function uses a non-reentrant model
  4245 ;;
  4246                           
  4247     00E5                     _delay:	
  4248                           ;psect for function _delay
  4249                           
  4250     00E5                     l1586:	
  4251                           ;incstack = 0
  4252                           ; Regs used in _delay: [wreg+status,2+status,0]
  4253                           
  4254     00E5                     l1588:	
  4255                           ;main.c: 32: void delay(uint32_t val);main.c: 33: {;main.c: 34:     while(val--);
  4256                           
  4257     00E5  3001               	movlw	1
  4258     00E6  00F4               	movwf	??_delay
  4259     00E7  3000               	movlw	0
  4260     00E8  00F5               	movwf	??_delay+1
  4261     00E9  3000               	movlw	0
  4262     00EA  00F6               	movwf	??_delay+2
  4263     00EB  3000               	movlw	0
  4264     00EC  00F7               	movwf	??_delay+3
  4265     00ED  0874               	movf	??_delay,w
  4266     00EE  02F0               	subwf	delay@val,f
  4267     00EF  0875               	movf	??_delay+1,w
  4268     00F0  3BF1               	subwfb	delay@val+1,f
  4269     00F1  0876               	movf	??_delay+2,w
  4270     00F2  3BF2               	subwfb	delay@val+2,f
  4271     00F3  0877               	movf	??_delay+3,w
  4272     00F4  3BF3               	subwfb	delay@val+3,f
  4273     00F5  0A70               	incf	delay@val,w
  4274     00F6  1D03               	skipz
  4275     00F7  2902               	goto	u1041
  4276     00F8  0A71               	incf	delay@val+1,w
  4277     00F9  1D03               	skipz
  4278     00FA  2902               	goto	u1041
  4279     00FB  0A72               	incf	delay@val+2,w
  4280     00FC  1D03               	skipz
  4281     00FD  2902               	goto	u1041
  4282     00FE  0A73               	incf	delay@val+3,w
  4283     00FF  1D03               	btfss	3,2
  4284     0100  2902               	goto	u1041
  4285     0101  2903               	goto	u1040
  4286     0102                     u1041:
  4287     0102  28E5               	goto	l1588
  4288     0103                     u1040:
  4289     0103                     l26:
  4290     0103  0008               	return
  4291     0104                     __end_of_delay:
  4292                           
  4293                           	psect	text21
  4294     0232                     __ptext21:	
  4295 ;; *************** function _adc_read *****************
  4296 ;; Defined at:
  4297 ;;		line 3 in file "C:/Users/saksh/MPLABXProjects/test2.X/adc.c"
  4298 ;; Parameters:    Size  Location     Type
  4299 ;;		None
  4300 ;; Auto vars:     Size  Location     Type
  4301 ;;  data            2    4[COMMON] volatile unsigned short 
  4302 ;; Return value:  Size  Location     Type
  4303 ;;                  2    0[COMMON] unsigned short 
  4304 ;; Registers used:
  4305 ;;		wreg, status,2, status,0
  4306 ;; Tracked objects:
  4307 ;;		On entry : 0/0
  4308 ;;		On exit  : 0/0
  4309 ;;		Unchanged: 0/0
  4310 ;; Data sizes:     COMMON   BANK0   BANK1
  4311 ;;      Params:         2       0       0
  4312 ;;      Locals:         2       0       0
  4313 ;;      Temps:          2       0       0
  4314 ;;      Totals:         6       0       0
  4315 ;;Total ram usage:        6 bytes
  4316 ;; Hardware stack levels used: 1
  4317 ;; This function calls:
  4318 ;;		Nothing
  4319 ;; This function is called by:
  4320 ;;		_main
  4321 ;; This function uses a non-reentrant model
  4322 ;;
  4323                           
  4324     0232                     _adc_read:	
  4325                           ;psect for function _adc_read
  4326                           
  4327     0232                     l1620:	
  4328                           ;incstack = 0
  4329                           ; Regs used in _adc_read: [wreg+status,2+status,0]
  4330                           
  4331                           
  4332                           ;C:/Users/saksh/MPLABXProjects/test2.X/adc.c: 5:     volatile uint16_t data = 0;
  4333     0232  01F4               	clrf	adc_read@data	;volatile
  4334     0233  01F5               	clrf	adc_read@data+1	;volatile
  4335     0234                     l1622:
  4336                           
  4337                           ;C:/Users/saksh/MPLABXProjects/test2.X/adc.c: 9:     TRISCbits.TRISC3 = 1;
  4338     0234  0021               	movlb	1	; select bank1
  4339     0235  158E               	bsf	14,3	;volatile
  4340     0236                     l1624:
  4341                           
  4342                           ;C:/Users/saksh/MPLABXProjects/test2.X/adc.c: 12:     ANSELCbits.ANSC3 = 1;
  4343     0236  0023               	movlb	3	; select bank3
  4344     0237  158E               	bsf	14,3	;volatile
  4345     0238                     l1626:
  4346                           
  4347                           ;C:/Users/saksh/MPLABXProjects/test2.X/adc.c: 17:     ADCON0bits.ADON = 0;
  4348     0238  0021               	movlb	1	; select bank1
  4349     0239  101D               	bcf	29,0	;volatile
  4350     023A                     l1628:
  4351                           
  4352                           ;C:/Users/saksh/MPLABXProjects/test2.X/adc.c: 20:     ADCON0bits.ADGO = 0;
  4353     023A  109D               	bcf	29,1	;volatile
  4354     023B                     l1630:
  4355                           
  4356                           ;C:/Users/saksh/MPLABXProjects/test2.X/adc.c: 23:     ADCON1bits.ADCS = 0b001;
  4357     023B  081E               	movf	30,w	;volatile
  4358     023C  398F               	andlw	-113
  4359     023D  3810               	iorlw	16
  4360     023E  009E               	movwf	30	;volatile
  4361     023F                     l1632:
  4362                           
  4363                           ;C:/Users/saksh/MPLABXProjects/test2.X/adc.c: 26:     ADCON1bits.ADPREF = 0;
  4364     023F  30FC               	movlw	-4
  4365     0240  059E               	andwf	30,f	;volatile
  4366     0241                     l1634:
  4367                           
  4368                           ;C:/Users/saksh/MPLABXProjects/test2.X/adc.c: 29:     ADCON1bits.ADFM = 1;
  4369     0241  179E               	bsf	30,7	;volatile
  4370     0242                     l1636:
  4371                           
  4372                           ;C:/Users/saksh/MPLABXProjects/test2.X/adc.c: 32:     ADCON0bits.CHS = 0b00111;
  4373     0242  081D               	movf	29,w	;volatile
  4374     0243  3983               	andlw	-125
  4375     0244  381C               	iorlw	28
  4376     0245  009D               	movwf	29	;volatile
  4377     0246                     l1638:
  4378                           
  4379                           ;C:/Users/saksh/MPLABXProjects/test2.X/adc.c: 35:     ADCON0bits.ADON = 1;
  4380     0246  141D               	bsf	29,0	;volatile
  4381     0247                     l1640:
  4382                           
  4383                           ;C:/Users/saksh/MPLABXProjects/test2.X/adc.c: 38:     ADCON0bits.ADGO = 1;
  4384     0247  149D               	bsf	29,1	;volatile
  4385     0248                     l208:	
  4386                           ;C:/Users/saksh/MPLABXProjects/test2.X/adc.c: 41:     while(ADCON0bits.ADGO);
  4387                           
  4388     0248  189D               	btfsc	29,1	;volatile
  4389     0249  2A4B               	goto	u1091
  4390     024A  2A4C               	goto	u1090
  4391     024B                     u1091:
  4392     024B  2A48               	goto	l208
  4393     024C                     u1090:
  4394     024C                     l1642:
  4395                           
  4396                           ;C:/Users/saksh/MPLABXProjects/test2.X/adc.c: 44:     data = ADRESH ;
  4397     024C  081C               	movf	28,w	;volatile
  4398     024D  00F2               	movwf	??_adc_read
  4399     024E  01F3               	clrf	??_adc_read+1
  4400     024F  0872               	movf	??_adc_read,w
  4401     0250  00F4               	movwf	adc_read@data	;volatile
  4402     0251  0873               	movf	??_adc_read+1,w
  4403     0252  00F5               	movwf	adc_read@data+1	;volatile
  4404                           
  4405                           ;C:/Users/saksh/MPLABXProjects/test2.X/adc.c: 45:     data = (data << 8);
  4406     0253  0874               	movf	adc_read@data,w	;volatile
  4407     0254  00F3               	movwf	??_adc_read+1
  4408     0255  01F2               	clrf	??_adc_read
  4409     0256  0872               	movf	??_adc_read,w
  4410     0257  00F4               	movwf	adc_read@data	;volatile
  4411     0258  0873               	movf	??_adc_read+1,w
  4412     0259  00F5               	movwf	adc_read@data+1	;volatile
  4413                           
  4414                           ;C:/Users/saksh/MPLABXProjects/test2.X/adc.c: 46:     data = (data| ADRESL) ;
  4415     025A  0874               	movf	adc_read@data,w	;volatile
  4416     025B  041B               	iorwf	27,w	;volatile
  4417     025C  00F2               	movwf	??_adc_read
  4418     025D  0875               	movf	adc_read@data+1,w	;volatile
  4419     025E  00F3               	movwf	??_adc_read+1
  4420     025F  0872               	movf	??_adc_read,w
  4421     0260  00F4               	movwf	adc_read@data	;volatile
  4422     0261  0873               	movf	??_adc_read+1,w
  4423     0262  00F5               	movwf	adc_read@data+1	;volatile
  4424                           
  4425                           ;C:/Users/saksh/MPLABXProjects/test2.X/adc.c: 48:     return (data & 0x03ff);
  4426     0263  30FF               	movlw	255
  4427     0264  0574               	andwf	adc_read@data,w	;volatile
  4428     0265  00F0               	movwf	?_adc_read
  4429     0266  3003               	movlw	3
  4430     0267  0575               	andwf	adc_read@data+1,w	;volatile
  4431     0268  00F1               	movwf	?_adc_read+1
  4432     0269                     l211:
  4433     0269  0008               	return
  4434     026A                     __end_of_adc_read:
  4435                           
  4436                           	psect	text22
  4437     01CB                     __ptext22:	
  4438 ;; *************** function ___lmul *****************
  4439 ;; Defined at:
  4440 ;;		line 15 in file "C:\Program Files\Microchip\xc8\v2.45\pic\sources\c99\common\Umul32.c"
  4441 ;; Parameters:    Size  Location     Type
  4442 ;;  multiplier      4    0[COMMON] unsigned long 
  4443 ;;  multiplicand    4    4[COMMON] unsigned long 
  4444 ;; Auto vars:     Size  Location     Type
  4445 ;;  product         4    8[COMMON] unsigned long 
  4446 ;; Return value:  Size  Location     Type
  4447 ;;                  4    0[COMMON] unsigned long 
  4448 ;; Registers used:
  4449 ;;		wreg, status,2, status,0
  4450 ;; Tracked objects:
  4451 ;;		On entry : 0/0
  4452 ;;		On exit  : 0/0
  4453 ;;		Unchanged: 0/0
  4454 ;; Data sizes:     COMMON   BANK0   BANK1
  4455 ;;      Params:         8       0       0
  4456 ;;      Locals:         4       0       0
  4457 ;;      Temps:          0       0       0
  4458 ;;      Totals:        12       0       0
  4459 ;;Total ram usage:       12 bytes
  4460 ;; Hardware stack levels used: 1
  4461 ;; This function calls:
  4462 ;;		Nothing
  4463 ;; This function is called by:
  4464 ;;		_main
  4465 ;; This function uses a non-reentrant model
  4466 ;;
  4467                           
  4468     01CB                     ___lmul:	
  4469                           ;psect for function ___lmul
  4470                           
  4471     01CB                     l1692:	
  4472                           ;incstack = 0
  4473                           ; Regs used in ___lmul: [wreg+status,2+status,0]
  4474                           
  4475     01CB  3000               	movlw	0
  4476     01CC  00FB               	movwf	___lmul@product+3
  4477     01CD  3000               	movlw	0
  4478     01CE  00FA               	movwf	___lmul@product+2
  4479     01CF  3000               	movlw	0
  4480     01D0  00F9               	movwf	___lmul@product+1
  4481     01D1  3000               	movlw	0
  4482     01D2  00F8               	movwf	___lmul@product
  4483     01D3                     l1694:
  4484     01D3  1C70               	btfss	___lmul@multiplier,0
  4485     01D4  29D6               	goto	u1161
  4486     01D5  29D7               	goto	u1160
  4487     01D6                     u1161:
  4488     01D6  29DF               	goto	l1698
  4489     01D7                     u1160:
  4490     01D7                     l1696:
  4491     01D7  0874               	movf	___lmul@multiplicand,w
  4492     01D8  07F8               	addwf	___lmul@product,f
  4493     01D9  0875               	movf	___lmul@multiplicand+1,w
  4494     01DA  3DF9               	addwfc	___lmul@product+1,f
  4495     01DB  0876               	movf	___lmul@multiplicand+2,w
  4496     01DC  3DFA               	addwfc	___lmul@product+2,f
  4497     01DD  0877               	movf	___lmul@multiplicand+3,w
  4498     01DE  3DFB               	addwfc	___lmul@product+3,f
  4499     01DF                     l1698:
  4500     01DF  3001               	movlw	1
  4501     01E0                     u1175:
  4502     01E0  35F4               	lslf	___lmul@multiplicand,f
  4503     01E1  0DF5               	rlf	___lmul@multiplicand+1,f
  4504     01E2  0DF6               	rlf	___lmul@multiplicand+2,f
  4505     01E3  0DF7               	rlf	___lmul@multiplicand+3,f
  4506     01E4  0B89               	decfsz	9,f
  4507     01E5  29E0               	goto	u1175
  4508     01E6                     l1700:
  4509     01E6  3001               	movlw	1
  4510     01E7                     u1185:
  4511     01E7  36F3               	lsrf	___lmul@multiplier+3,f
  4512     01E8  0CF2               	rrf	___lmul@multiplier+2,f
  4513     01E9  0CF1               	rrf	___lmul@multiplier+1,f
  4514     01EA  0CF0               	rrf	___lmul@multiplier,f
  4515     01EB  0B89               	decfsz	9,f
  4516     01EC  29E7               	goto	u1185
  4517     01ED  0873               	movf	___lmul@multiplier+3,w
  4518     01EE  0472               	iorwf	___lmul@multiplier+2,w
  4519     01EF  0471               	iorwf	___lmul@multiplier+1,w
  4520     01F0  0470               	iorwf	___lmul@multiplier,w
  4521     01F1  1D03               	skipz
  4522     01F2  29F4               	goto	u1191
  4523     01F3  29F5               	goto	u1190
  4524     01F4                     u1191:
  4525     01F4  29D3               	goto	l1694
  4526     01F5                     u1190:
  4527     01F5                     l1702:
  4528     01F5  087B               	movf	___lmul@product+3,w
  4529     01F6  00F3               	movwf	?___lmul+3
  4530     01F7  087A               	movf	___lmul@product+2,w
  4531     01F8  00F2               	movwf	?___lmul+2
  4532     01F9  0879               	movf	___lmul@product+1,w
  4533     01FA  00F1               	movwf	?___lmul+1
  4534     01FB  0878               	movf	___lmul@product,w
  4535     01FC  00F0               	movwf	?___lmul
  4536     01FD                     l293:
  4537     01FD  0008               	return
  4538     01FE                     __end_of___lmul:
  4539                           
  4540                           	psect	text23
  4541     02F6                     __ptext23:	
  4542 ;; *************** function ___lldiv *****************
  4543 ;; Defined at:
  4544 ;;		line 5 in file "C:\Program Files\Microchip\xc8\v2.45\pic\sources\c99\common\__lldiv.c"
  4545 ;; Parameters:    Size  Location     Type
  4546 ;;  divisor         4    0[BANK0 ] unsigned long 
  4547 ;;  dividend        4    4[BANK0 ] unsigned long 
  4548 ;; Auto vars:     Size  Location     Type
  4549 ;;  quotient        4    8[BANK0 ] unsigned long 
  4550 ;;  counter         1   12[BANK0 ] unsigned char 
  4551 ;; Return value:  Size  Location     Type
  4552 ;;                  4    0[BANK0 ] unsigned long 
  4553 ;; Registers used:
  4554 ;;		wreg, status,2, status,0
  4555 ;; Tracked objects:
  4556 ;;		On entry : 0/0
  4557 ;;		On exit  : 0/0
  4558 ;;		Unchanged: 0/0
  4559 ;; Data sizes:     COMMON   BANK0   BANK1
  4560 ;;      Params:         0       8       0
  4561 ;;      Locals:         0       5       0
  4562 ;;      Temps:          1       0       0
  4563 ;;      Totals:         1      13       0
  4564 ;;Total ram usage:       14 bytes
  4565 ;; Hardware stack levels used: 1
  4566 ;; This function calls:
  4567 ;;		Nothing
  4568 ;; This function is called by:
  4569 ;;		_main
  4570 ;; This function uses a non-reentrant model
  4571 ;;
  4572                           
  4573     02F6                     ___lldiv:	
  4574                           ;psect for function ___lldiv
  4575                           
  4576     02F6                     l1706:	
  4577                           ;incstack = 0
  4578                           ; Regs used in ___lldiv: [wreg+status,2+status,0]
  4579                           
  4580     02F6  3000               	movlw	0
  4581     02F7  0020               	movlb	0	; select bank0
  4582     02F8  00AB               	movwf	___lldiv@quotient+3
  4583     02F9  3000               	movlw	0
  4584     02FA  00AA               	movwf	___lldiv@quotient+2
  4585     02FB  3000               	movlw	0
  4586     02FC  00A9               	movwf	___lldiv@quotient+1
  4587     02FD  3000               	movlw	0
  4588     02FE  00A8               	movwf	___lldiv@quotient
  4589     02FF  0823               	movf	___lldiv@divisor+3,w
  4590     0300  0422               	iorwf	___lldiv@divisor+2,w
  4591     0301  0421               	iorwf	___lldiv@divisor+1,w
  4592     0302  0420               	iorwf	___lldiv@divisor,w
  4593     0303  1903               	skipnz
  4594     0304  2B06               	goto	u1201
  4595     0305  2B07               	goto	u1200
  4596     0306                     u1201:
  4597     0306  2B48               	goto	l1726
  4598     0307                     u1200:
  4599     0307                     l1708:
  4600     0307  01AC               	clrf	___lldiv@counter
  4601     0308  0AAC               	incf	___lldiv@counter,f
  4602     0309  2B15               	goto	l1712
  4603     030A                     l1710:
  4604     030A  3001               	movlw	1
  4605     030B                     u1215:
  4606     030B  35A0               	lslf	___lldiv@divisor,f
  4607     030C  0DA1               	rlf	___lldiv@divisor+1,f
  4608     030D  0DA2               	rlf	___lldiv@divisor+2,f
  4609     030E  0DA3               	rlf	___lldiv@divisor+3,f
  4610     030F  0B89               	decfsz	9,f
  4611     0310  2B0B               	goto	u1215
  4612     0311  3001               	movlw	1
  4613     0312  00FC               	movwf	??___lldiv
  4614     0313  087C               	movf	??___lldiv,w
  4615     0314  07AC               	addwf	___lldiv@counter,f
  4616     0315                     l1712:
  4617     0315  1FA3               	btfss	___lldiv@divisor+3,7
  4618     0316  2B18               	goto	u1221
  4619     0317  2B19               	goto	u1220
  4620     0318                     u1221:
  4621     0318  2B0A               	goto	l1710
  4622     0319                     u1220:
  4623     0319                     l1714:
  4624     0319  3001               	movlw	1
  4625     031A                     u1235:
  4626     031A  35A8               	lslf	___lldiv@quotient,f
  4627     031B  0DA9               	rlf	___lldiv@quotient+1,f
  4628     031C  0DAA               	rlf	___lldiv@quotient+2,f
  4629     031D  0DAB               	rlf	___lldiv@quotient+3,f
  4630     031E  0B89               	decfsz	9,f
  4631     031F  2B1A               	goto	u1235
  4632     0320                     l1716:
  4633     0320  0823               	movf	___lldiv@divisor+3,w
  4634     0321  0227               	subwf	___lldiv@dividend+3,w
  4635     0322  1D03               	skipz
  4636     0323  2B2E               	goto	u1245
  4637     0324  0822               	movf	___lldiv@divisor+2,w
  4638     0325  0226               	subwf	___lldiv@dividend+2,w
  4639     0326  1D03               	skipz
  4640     0327  2B2E               	goto	u1245
  4641     0328  0821               	movf	___lldiv@divisor+1,w
  4642     0329  0225               	subwf	___lldiv@dividend+1,w
  4643     032A  1D03               	skipz
  4644     032B  2B2E               	goto	u1245
  4645     032C  0820               	movf	___lldiv@divisor,w
  4646     032D  0224               	subwf	___lldiv@dividend,w
  4647     032E                     u1245:
  4648     032E  1C03               	skipc
  4649     032F  2B31               	goto	u1241
  4650     0330  2B32               	goto	u1240
  4651     0331                     u1241:
  4652     0331  2B3B               	goto	l1722
  4653     0332                     u1240:
  4654     0332                     l1718:
  4655     0332  0820               	movf	___lldiv@divisor,w
  4656     0333  02A4               	subwf	___lldiv@dividend,f
  4657     0334  0821               	movf	___lldiv@divisor+1,w
  4658     0335  3BA5               	subwfb	___lldiv@dividend+1,f
  4659     0336  0822               	movf	___lldiv@divisor+2,w
  4660     0337  3BA6               	subwfb	___lldiv@dividend+2,f
  4661     0338  0823               	movf	___lldiv@divisor+3,w
  4662     0339  3BA7               	subwfb	___lldiv@dividend+3,f
  4663     033A                     l1720:
  4664     033A  1428               	bsf	___lldiv@quotient,0
  4665     033B                     l1722:
  4666     033B  3001               	movlw	1
  4667     033C                     u1255:
  4668     033C  36A3               	lsrf	___lldiv@divisor+3,f
  4669     033D  0CA2               	rrf	___lldiv@divisor+2,f
  4670     033E  0CA1               	rrf	___lldiv@divisor+1,f
  4671     033F  0CA0               	rrf	___lldiv@divisor,f
  4672     0340  0B89               	decfsz	9,f
  4673     0341  2B3C               	goto	u1255
  4674     0342                     l1724:
  4675     0342  3001               	movlw	1
  4676     0343  02AC               	subwf	___lldiv@counter,f
  4677     0344  1D03               	btfss	3,2
  4678     0345  2B47               	goto	u1261
  4679     0346  2B48               	goto	u1260
  4680     0347                     u1261:
  4681     0347  2B19               	goto	l1714
  4682     0348                     u1260:
  4683     0348                     l1726:
  4684     0348  082B               	movf	___lldiv@quotient+3,w
  4685     0349  00A3               	movwf	?___lldiv+3
  4686     034A  082A               	movf	___lldiv@quotient+2,w
  4687     034B  00A2               	movwf	?___lldiv+2
  4688     034C  0829               	movf	___lldiv@quotient+1,w
  4689     034D  00A1               	movwf	?___lldiv+1
  4690     034E  0828               	movf	___lldiv@quotient,w
  4691     034F  00A0               	movwf	?___lldiv
  4692     0350                     l315:
  4693     0350  0008               	return
  4694     0351                     __end_of___lldiv:
  4695                           
  4696                           	psect	text24
  4697     019D                     __ptext24:	
  4698 ;; *************** function _I2C_init *****************
  4699 ;; Defined at:
  4700 ;;		line 18 in file "C:/Users/saksh/MPLABXProjects/test2.X/Source/I2C.c"
  4701 ;; Parameters:    Size  Location     Type
  4702 ;;  I2C_frequenc    2    8[COMMON] unsigned short 
  4703 ;; Auto vars:     Size  Location     Type
  4704 ;;		None
  4705 ;; Return value:  Size  Location     Type
  4706 ;;                  1    wreg      void 
  4707 ;; Registers used:
  4708 ;;		wreg, status,2, status,0, pclath, cstack
  4709 ;; Tracked objects:
  4710 ;;		On entry : 0/0
  4711 ;;		On exit  : 0/0
  4712 ;;		Unchanged: 0/0
  4713 ;; Data sizes:     COMMON   BANK0   BANK1
  4714 ;;      Params:         2       0       0
  4715 ;;      Locals:         0       0       0
  4716 ;;      Temps:          2       0       0
  4717 ;;      Totals:         4       0       0
  4718 ;;Total ram usage:        4 bytes
  4719 ;; Hardware stack levels used: 1
  4720 ;; Hardware stack levels required when called: 1
  4721 ;; This function calls:
  4722 ;;		___lwdiv
  4723 ;; This function is called by:
  4724 ;;		_main
  4725 ;; This function uses a non-reentrant model
  4726 ;;
  4727                           
  4728     019D                     _I2C_init:	
  4729                           ;psect for function _I2C_init
  4730                           
  4731     019D                     l1602:	
  4732                           ;incstack = 0
  4733                           ; Regs used in _I2C_init: [wreg+status,2+status,0+pclath+cstack]
  4734                           
  4735                           
  4736                           ;C:/Users/saksh/MPLABXProjects/test2.X/Source/I2C.c: 18: void I2C_init(uint16_t I2C_freq
      +                          uency_KHz);C:/Users/saksh/MPLABXProjects/test2.X/Source/I2C.c: 19: {;C:/Users/saksh/MPLA
      +                          BXProjects/test2.X/Source/I2C.c: 21:     TRISCbits.TRISC0 = 1;
  4737     019D  0021               	movlb	1	; select bank1
  4738     019E  140E               	bsf	14,0	;volatile
  4739                           
  4740                           ;C:/Users/saksh/MPLABXProjects/test2.X/Source/I2C.c: 22:     TRISCbits.TRISC1 = 1;
  4741     019F  148E               	bsf	14,1	;volatile
  4742                           
  4743                           ;C:/Users/saksh/MPLABXProjects/test2.X/Source/I2C.c: 25:     ANSELCbits.ANSC0 = 0;
  4744     01A0  0023               	movlb	3	; select bank3
  4745     01A1  100E               	bcf	14,0	;volatile
  4746                           
  4747                           ;C:/Users/saksh/MPLABXProjects/test2.X/Source/I2C.c: 26:     ANSELCbits.ANSC1 = 0;
  4748     01A2  108E               	bcf	14,1	;volatile
  4749     01A3                     l1604:
  4750                           
  4751                           ;C:/Users/saksh/MPLABXProjects/test2.X/Source/I2C.c: 29:     SSPCON1 = 0x00;
  4752     01A3  0024               	movlb	4	; select bank4
  4753     01A4  0195               	clrf	21	;volatile
  4754                           
  4755                           ;C:/Users/saksh/MPLABXProjects/test2.X/Source/I2C.c: 30:     SSP1STAT = 0x00;
  4756     01A5  0194               	clrf	20	;volatile
  4757                           
  4758                           ;C:/Users/saksh/MPLABXProjects/test2.X/Source/I2C.c: 31:     SSPCON2 = 0x00;
  4759     01A6  0196               	clrf	22	;volatile
  4760                           
  4761                           ;C:/Users/saksh/MPLABXProjects/test2.X/Source/I2C.c: 32:     SSPCON3 = 0x00;
  4762     01A7  0197               	clrf	23	;volatile
  4763     01A8                     l1606:
  4764                           
  4765                           ;C:/Users/saksh/MPLABXProjects/test2.X/Source/I2C.c: 35:     SSPSTATbits.SMP = 0x1;
  4766     01A8  1794               	bsf	20,7	;volatile
  4767     01A9                     l1608:
  4768                           
  4769                           ;C:/Users/saksh/MPLABXProjects/test2.X/Source/I2C.c: 38:     SSP1CON1bits.SSPM = 0b1000;
  4770     01A9  0815               	movf	21,w	;volatile
  4771     01AA  39F0               	andlw	-16
  4772     01AB  3808               	iorlw	8
  4773     01AC  0095               	movwf	21	;volatile
  4774     01AD                     l1610:
  4775                           
  4776                           ;C:/Users/saksh/MPLABXProjects/test2.X/Source/I2C.c: 43:     SSP1ADD = ((16000 / (4 * I2
      +                          C_frequency_KHz )) - 1);
  4777     01AD  0879               	movf	I2C_init@I2C_frequency_KHz+1,w
  4778     01AE  00FB               	movwf	??_I2C_init+1
  4779     01AF  0878               	movf	I2C_init@I2C_frequency_KHz,w
  4780     01B0  00FA               	movwf	??_I2C_init
  4781     01B1  35FA               	lslf	??_I2C_init,f
  4782     01B2  0DFB               	rlf	??_I2C_init+1,f
  4783     01B3  35FA               	lslf	??_I2C_init,f
  4784     01B4  0DFB               	rlf	??_I2C_init+1,f
  4785     01B5  087A               	movf	??_I2C_init,w
  4786     01B6  00F0               	movwf	___lwdiv@divisor
  4787     01B7  087B               	movf	??_I2C_init+1,w
  4788     01B8  00F1               	movwf	___lwdiv@divisor+1
  4789     01B9  3080               	movlw	128
  4790     01BA  00F2               	movwf	___lwdiv@dividend
  4791     01BB  303E               	movlw	62
  4792     01BC  00F3               	movwf	___lwdiv@dividend+1
  4793     01BD  3182  226A  3181   	fcall	___lwdiv
  4794     01C0  0870               	movf	?___lwdiv,w
  4795     01C1  3EFF               	addlw	255
  4796     01C2  0024               	movlb	4	; select bank4
  4797     01C3  0092               	movwf	18	;volatile
  4798     01C4                     l1612:
  4799                           
  4800                           ;C:/Users/saksh/MPLABXProjects/test2.X/Source/I2C.c: 46:     PIR1bits.SSP1IF = 0;
  4801     01C4  0020               	movlb	0	; select bank0
  4802     01C5  1191               	bcf	17,3	;volatile
  4803     01C6                     l1614:
  4804                           
  4805                           ;C:/Users/saksh/MPLABXProjects/test2.X/Source/I2C.c: 49:     PIE1bits.SSP1IE = 0;
  4806     01C6  0021               	movlb	1	; select bank1
  4807     01C7  1191               	bcf	17,3	;volatile
  4808     01C8                     l1616:
  4809                           
  4810                           ;C:/Users/saksh/MPLABXProjects/test2.X/Source/I2C.c: 51:     SSP1CON1bits.SSPEN = 1;
  4811     01C8  0024               	movlb	4	; select bank4
  4812     01C9  1695               	bsf	21,5	;volatile
  4813     01CA                     l69:
  4814     01CA  0008               	return
  4815     01CB                     __end_of_I2C_init:
  4816                           
  4817                           	psect	text25
  4818     026A                     __ptext25:	
  4819 ;; *************** function ___lwdiv *****************
  4820 ;; Defined at:
  4821 ;;		line 5 in file "C:\Program Files\Microchip\xc8\v2.45\pic\sources\c99\common\lwdiv.c"
  4822 ;; Parameters:    Size  Location     Type
  4823 ;;  divisor         2    0[COMMON] unsigned int 
  4824 ;;  dividend        2    2[COMMON] unsigned int 
  4825 ;; Auto vars:     Size  Location     Type
  4826 ;;  quotient        2    5[COMMON] unsigned int 
  4827 ;;  counter         1    7[COMMON] unsigned char 
  4828 ;; Return value:  Size  Location     Type
  4829 ;;                  2    0[COMMON] unsigned int 
  4830 ;; Registers used:
  4831 ;;		wreg, status,2, status,0
  4832 ;; Tracked objects:
  4833 ;;		On entry : 0/0
  4834 ;;		On exit  : 0/0
  4835 ;;		Unchanged: 0/0
  4836 ;; Data sizes:     COMMON   BANK0   BANK1
  4837 ;;      Params:         4       0       0
  4838 ;;      Locals:         3       0       0
  4839 ;;      Temps:          1       0       0
  4840 ;;      Totals:         8       0       0
  4841 ;;Total ram usage:        8 bytes
  4842 ;; Hardware stack levels used: 1
  4843 ;; This function calls:
  4844 ;;		Nothing
  4845 ;; This function is called by:
  4846 ;;		_I2C_init
  4847 ;;		_vfpfcnvrt
  4848 ;; This function uses a non-reentrant model
  4849 ;;
  4850                           
  4851     026A                     ___lwdiv:	
  4852                           ;psect for function ___lwdiv
  4853                           
  4854     026A                     l1380:	
  4855                           ;incstack = 0
  4856                           ; Regs used in ___lwdiv: [wreg+status,2+status,0]
  4857                           
  4858     026A  01F5               	clrf	___lwdiv@quotient
  4859     026B  01F6               	clrf	___lwdiv@quotient+1
  4860     026C                     l1382:
  4861     026C  0870               	movf	___lwdiv@divisor,w
  4862     026D  0471               	iorwf	___lwdiv@divisor+1,w
  4863     026E  1903               	btfsc	3,2
  4864     026F  2A71               	goto	u741
  4865     0270  2A72               	goto	u740
  4866     0271                     u741:
  4867     0271  2AA1               	goto	l1402
  4868     0272                     u740:
  4869     0272                     l1384:
  4870     0272  01F7               	clrf	___lwdiv@counter
  4871     0273  0AF7               	incf	___lwdiv@counter,f
  4872     0274  2A7E               	goto	l1390
  4873     0275                     l1386:
  4874     0275  3001               	movlw	1
  4875     0276                     u755:
  4876     0276  35F0               	lslf	___lwdiv@divisor,f
  4877     0277  0DF1               	rlf	___lwdiv@divisor+1,f
  4878     0278  0B89               	decfsz	9,f
  4879     0279  2A76               	goto	u755
  4880     027A                     l1388:
  4881     027A  3001               	movlw	1
  4882     027B  00F4               	movwf	??___lwdiv
  4883     027C  0874               	movf	??___lwdiv,w
  4884     027D  07F7               	addwf	___lwdiv@counter,f
  4885     027E                     l1390:
  4886     027E  1FF1               	btfss	___lwdiv@divisor+1,7
  4887     027F  2A81               	goto	u761
  4888     0280  2A82               	goto	u760
  4889     0281                     u761:
  4890     0281  2A75               	goto	l1386
  4891     0282                     u760:
  4892     0282                     l1392:
  4893     0282  3001               	movlw	1
  4894     0283                     u775:
  4895     0283  35F5               	lslf	___lwdiv@quotient,f
  4896     0284  0DF6               	rlf	___lwdiv@quotient+1,f
  4897     0285  0B89               	decfsz	9,f
  4898     0286  2A83               	goto	u775
  4899     0287  0871               	movf	___lwdiv@divisor+1,w
  4900     0288  0273               	subwf	___lwdiv@dividend+1,w
  4901     0289  1D03               	skipz
  4902     028A  2A8D               	goto	u785
  4903     028B  0870               	movf	___lwdiv@divisor,w
  4904     028C  0272               	subwf	___lwdiv@dividend,w
  4905     028D                     u785:
  4906     028D  1C03               	skipc
  4907     028E  2A90               	goto	u781
  4908     028F  2A91               	goto	u780
  4909     0290                     u781:
  4910     0290  2A96               	goto	l1398
  4911     0291                     u780:
  4912     0291                     l1394:
  4913     0291  0870               	movf	___lwdiv@divisor,w
  4914     0292  02F2               	subwf	___lwdiv@dividend,f
  4915     0293  0871               	movf	___lwdiv@divisor+1,w
  4916     0294  3BF3               	subwfb	___lwdiv@dividend+1,f
  4917     0295                     l1396:
  4918     0295  1475               	bsf	___lwdiv@quotient,0
  4919     0296                     l1398:
  4920     0296  3001               	movlw	1
  4921     0297                     u795:
  4922     0297  36F1               	lsrf	___lwdiv@divisor+1,f
  4923     0298  0CF0               	rrf	___lwdiv@divisor,f
  4924     0299  0B89               	decfsz	9,f
  4925     029A  2A97               	goto	u795
  4926     029B                     l1400:
  4927     029B  3001               	movlw	1
  4928     029C  02F7               	subwf	___lwdiv@counter,f
  4929     029D  1D03               	btfss	3,2
  4930     029E  2AA0               	goto	u801
  4931     029F  2AA1               	goto	u800
  4932     02A0                     u801:
  4933     02A0  2A82               	goto	l1392
  4934     02A1                     u800:
  4935     02A1                     l1402:
  4936     02A1  0876               	movf	___lwdiv@quotient+1,w
  4937     02A2  00F1               	movwf	?___lwdiv+1
  4938     02A3  0875               	movf	___lwdiv@quotient,w
  4939     02A4  00F0               	movwf	?___lwdiv
  4940     02A5                     l559:
  4941     02A5  0008               	return
  4942     02A6                     __end_of___lwdiv:
  4943     007E                     btemp	set	126	;btemp
  4944     007E                     wtemp0	set	126
  4945                           
  4946                           	psect	idloc
  4947                           
  4948                           ;Config register IDLOC0 @ 0x8000
  4949                           ;	unspecified, using default values
  4950     8000                     	org	32768
  4951     8000  3FFF               	dw	16383
  4952                           
  4953                           ;Config register IDLOC1 @ 0x8001
  4954                           ;	unspecified, using default values
  4955     8001                     	org	32769
  4956     8001  3FFF               	dw	16383
  4957                           
  4958                           ;Config register IDLOC2 @ 0x8002
  4959                           ;	unspecified, using default values
  4960     8002                     	org	32770
  4961     8002  3FFF               	dw	16383
  4962                           
  4963                           ;Config register IDLOC3 @ 0x8003
  4964                           ;	unspecified, using default values
  4965     8003                     	org	32771
  4966     8003  3FFF               	dw	16383
  4967                           
  4968                           	psect	config
  4969                           
  4970                           ;Config register CONFIG1 @ 0x8007
  4971                           ;	Oscillator Selection Bits
  4972                           ;	FOSC = INTOSC, INTOSC oscillator: I/O function on CLKIN pin
  4973                           ;	Watchdog Timer Enable
  4974                           ;	WDTE = OFF, WDT disabled
  4975                           ;	Power-up Timer Enable
  4976                           ;	PWRTE = OFF, PWRT disabled
  4977                           ;	MCLR Pin Function Select
  4978                           ;	MCLRE = OFF, MCLR/VPP pin function is digital input
  4979                           ;	Flash Program Memory Code Protection
  4980                           ;	CP = OFF, Program memory code protection is disabled
  4981                           ;	Brown-out Reset Enable
  4982                           ;	BOREN = OFF, Brown-out Reset disabled
  4983                           ;	Clock Out Enable
  4984                           ;	CLKOUTEN = OFF, CLKOUT function is disabled. I/O or oscillator function on the CLKOUT 
      +                          pin
  4985     8007                     	org	32775
  4986     8007  39A4               	dw	14756
  4987                           
  4988                           ;Config register CONFIG2 @ 0x8008
  4989                           ;	Flash Memory Self-Write Protection
  4990                           ;	WRT = OFF, Write protection off
  4991                           ;	Stack Overflow/Underflow Reset Enable
  4992                           ;	STVREN = OFF, Stack Overflow or Underflow will not cause a Reset
  4993                           ;	Brown-out Reset Voltage Selection
  4994                           ;	BORV = LO, Brown-out Reset Voltage (Vbor), low trip point selected.
  4995                           ;	Low-Power Brown Out Reset
  4996                           ;	LPBOR = OFF, Low-Power BOR is disabled
  4997                           ;	Low-Voltage Programming Enable
  4998                           ;	LVP = OFF, High-voltage on MCLR/VPP must be used for programming
  4999     8008                     	org	32776
  5000     8008  1DFF               	dw	7679

Data Sizes:
    Strings     19
    Constant    455
    Data        2
    BSS         39
    Persistent  32
    Stack       0

Auto Spaces:
    Space          Size  Autos    Used
    COMMON           14     14      14
    BANK0            80     59      68
    BANK1            32      0      32

Pointer List with Targets:

    f$.$buffer	PTR unsigned char  size(2) Largest target is 0

    f$.$source	PTR const unsigned char  size(2) Largest target is 0

    fputc@fp	PTR struct _IO_FILE size(1) Largest target is 11
		 -> sprintf@f(BANK0[11]), 

    fputc@fp$.$buffer	PTR unsigned char  size(2) Largest target is 0

    fputc@fp$.$source	PTR const unsigned char  size(2) Largest target is 0

    S887$buffer	PTR unsigned char  size(2) Largest target is 0

    S887$source	PTR const unsigned char  size(2) Largest target is 0

    sprintf@ap	PTR void [1] size(1) Largest target is 2
		 -> ?_sprintf(BANK0[2]), 

    sprintf@fmt	PTR const unsigned char  size(2) Largest target is 10
		 -> STR_1(CODE[10]), STR_2(CODE[9]), 

    sprintf@s	PTR unsigned char  size(1) Largest target is 20
		 -> main@str(BANK0[20]), 

    ssd1306_Print_String@str	PTR unsigned char  size(1) Largest target is 20
		 -> main@str(BANK0[20]), 

    vfpfcnvrt@ap	PTR PTR void  size(1) Largest target is 1
		 -> sprintf@ap(BANK0[1]), 

    vfpfcnvrt@cp	PTR unsigned char  size(2) Largest target is 10
		 -> STR_1(CODE[10]), STR_2(CODE[9]), 

    vfpfcnvrt@fmt	PTR PTR unsigned char  size(1) Largest target is 2
		 -> vfprintf@cfmt(BANK0[2]), 

    vfpfcnvrt@fp	PTR struct _IO_FILE size(1) Largest target is 11
		 -> sprintf@f(BANK0[11]), 

    vfprintf@ap	PTR PTR void  size(1) Largest target is 1
		 -> sprintf@ap(BANK0[1]), 

    vfprintf@cfmt	PTR unsigned char  size(2) Largest target is 10
		 -> STR_1(CODE[10]), STR_2(CODE[9]), 

    vfprintf@fmt	PTR const unsigned char  size(2) Largest target is 10
		 -> STR_1(CODE[10]), STR_2(CODE[9]), 

    vfprintf@fp	PTR struct _IO_FILE size(1) Largest target is 11
		 -> sprintf@f(BANK0[11]), 


Critical Paths under _main in COMMON

    _main->_ssd1306_Print_String
    _ssd1306_init->_ssd1306_clear_refresh
    _ssd1306_init->_ssd1306_setcursor
    _ssd1306_setcursor->_ssd1306_command
    _ssd1306_clear_refresh->_ssd1306_command
    _ssd1306_clear_refresh->_ssd1306_data
    _ssd1306_command->_I2C_write_memory
    _ssd1306_Print_String->_ssd1306_data
    _ssd1306_data->_I2C_write_memory
    _I2C_write_memory->_I2C_set_address
    _vfprintf->_vfpfcnvrt
    _vfpfcnvrt->___lwdiv
    _vfpfcnvrt->_fputc
    ___lldiv->___lmul
    _I2C_init->___lwdiv

Critical Paths under _main in BANK0

    _main->_sprintf
    _sprintf->_vfprintf
    _vfprintf->_vfpfcnvrt

Critical Paths under _main in BANK1

    None.

Call Graph Tables:

 ---------------------------------------------------------------------------------
 (Depth) Function   	        Calls       Base Space   Used Autos Params    Refs
 ---------------------------------------------------------------------------------
 (0) _main                                                28    28      0    9781
                                             33 BANK0     26    26      0
                           _I2C_init
                            ___lldiv
                             ___lmul
                           _adc_read
                              _delay
                       _set_osc_freq
                            _sprintf
               _ssd1306_Print_String
                       _ssd1306_init
                  _ssd1306_setcursor
 ---------------------------------------------------------------------------------
 (1) _ssd1306_init                                         0     0      0    2934
              _ssd1306_clear_refresh
                    _ssd1306_command
                  _ssd1306_setcursor
 ---------------------------------------------------------------------------------
 (1) _ssd1306_setcursor                                    2     1      1     992
                                              7 COMMON     2     1      1
                    _ssd1306_command
 ---------------------------------------------------------------------------------
 (2) _ssd1306_clear_refresh                                2     2      0    1310
                                              7 COMMON     2     2      0
                    _ssd1306_command
                       _ssd1306_data
 ---------------------------------------------------------------------------------
 (2) _ssd1306_command                                      1     1      0     632
                                              6 COMMON     1     1      0
                   _I2C_write_memory
 ---------------------------------------------------------------------------------
 (1) _ssd1306_Print_String                                11    11      0    1190
                                              7 COMMON     7     7      0
                                              0 BANK0      4     4      0
                             ___wmul
                       _ssd1306_data
 ---------------------------------------------------------------------------------
 (3) _ssd1306_data                                         1     1      0     632
                                              6 COMMON     1     1      0
                   _I2C_write_memory
 ---------------------------------------------------------------------------------
 (3) _I2C_write_memory                                     3     1      2     610
                                              3 COMMON     3     1      2
             _I2C_begin_transmission
                    _I2C_set_address
              _I2C_stop_transmission
                  _I2C_transmit_data
 ---------------------------------------------------------------------------------
 (4) _I2C_transmit_data                                    2     2      0      22
                                              0 COMMON     2     2      0
 ---------------------------------------------------------------------------------
 (4) _I2C_set_address                                      3     2      1     218
                                              0 COMMON     3     2      1
              _I2C_stop_transmission
 ---------------------------------------------------------------------------------
 (4) _I2C_stop_transmission                                0     0      0       0
 ---------------------------------------------------------------------------------
 (4) _I2C_begin_transmission                               1     1      0       0
                                              0 COMMON     1     1      0
 ---------------------------------------------------------------------------------
 (2) ___wmul                                               6     2      4     244
                                              0 COMMON     6     2      4
 ---------------------------------------------------------------------------------
 (1) _sprintf                                             20    16      4    3008
                                             15 BANK0     18    14      4
                           _vfprintf
 ---------------------------------------------------------------------------------
 (2) _vfprintf                                             7     4      3    2589
                                              8 BANK0      7     4      3
                          _vfpfcnvrt
 ---------------------------------------------------------------------------------
 (3) _vfpfcnvrt                                           15    13      2    2282
                                              8 COMMON     6     4      2
                                              0 BANK0      8     8      0
                            ___lwdiv
                            ___lwmod
                              _fputc
 ---------------------------------------------------------------------------------
 (4) _fputc                                                8     5      3     782
                                              0 COMMON     8     5      3
                              _putch
 ---------------------------------------------------------------------------------
 (5) _putch                                                1     1      0       0
 ---------------------------------------------------------------------------------
 (4) ___lwmod                                              6     2      4     311
                                              0 COMMON     6     2      4
 ---------------------------------------------------------------------------------
 (1) _set_osc_freq                                         2     2      0      45
                                              0 COMMON     2     2      0
 ---------------------------------------------------------------------------------
 (1) _delay                                                8     4      4     250
                                              0 COMMON     8     4      4
 ---------------------------------------------------------------------------------
 (1) _adc_read                                             6     4      2      70
                                              0 COMMON     6     4      2
 ---------------------------------------------------------------------------------
 (1) ___lmul                                              12     4      8     244
                                              0 COMMON    12     4      8
 ---------------------------------------------------------------------------------
 (1) ___lldiv                                             14     6      8     314
                                             12 COMMON     1     1      0
                                              0 BANK0     13     5      8
                             ___lmul (ARG)
 ---------------------------------------------------------------------------------
 (1) _I2C_init                                             4     2      2     564
                                              8 COMMON     4     2      2
                            ___lwdiv
 ---------------------------------------------------------------------------------
 (4) ___lwdiv                                              8     4      4     466
                                              0 COMMON     8     4      4
 ---------------------------------------------------------------------------------
 Estimated maximum stack depth 5
 ---------------------------------------------------------------------------------

 Call Graph Graphs:

 _main (ROOT)
   _I2C_init
     ___lwdiv
   ___lldiv
     ___lmul (ARG)
   ___lmul
   _adc_read
   _delay
   _set_osc_freq
   _sprintf
     _vfprintf
       _vfpfcnvrt
         ___lwdiv
         ___lwmod
         _fputc
           _putch
   _ssd1306_Print_String
     ___wmul
     _ssd1306_data
       _I2C_write_memory
         _I2C_begin_transmission
         _I2C_set_address
           _I2C_stop_transmission
         _I2C_stop_transmission
         _I2C_transmit_data
   _ssd1306_init
     _ssd1306_clear_refresh
       _ssd1306_command
         _I2C_write_memory
       _ssd1306_data
     _ssd1306_command
     _ssd1306_setcursor
       _ssd1306_command
   _ssd1306_setcursor

 Address spaces:
Name               Size   Autos  Total    Cost      Usage
BIGRAM              70      0       0       0        0.0%
NULL                 0      0       0       0        0.0%
CODE                 0      0       0       0        0.0%
BITCOMMON            E      0       0       1        0.0%
BITSFR0              0      0       0       1        0.0%
SFR0                 0      0       0       1        0.0%
COMMON               E      E       E       2      100.0%
BITSFR1              0      0       0       2        0.0%
SFR1                 0      0       0       2        0.0%
BITSFR2              0      0       0       3        0.0%
SFR2                 0      0       0       3        0.0%
STACK                0      0       0       3        0.0%
BITSFR3              0      0       0       4        0.0%
SFR3                 0      0       0       4        0.0%
ABS                  0      0      72       4        0.0%
BITBANK0            50      0       0       5        0.0%
BITSFR4              0      0       0       5        0.0%
SFR4                 0      0       0       5        0.0%
BANK0               50     3B      44       6       85.0%
BITSFR5              0      0       0       6        0.0%
SFR5                 0      0       0       6        0.0%
BITBANK1            20      0       0       7        0.0%
BITSFR6              0      0       0       7        0.0%
SFR6                 0      0       0       7        0.0%
BANK1               20      0      20       8      100.0%
BITSFR7              0      0       0       8        0.0%
SFR7                 0      0       0       8        0.0%
BITSFR8              0      0       0       9        0.0%
SFR8                 0      0       0       9        0.0%
DATA                 0      0      72       9        0.0%
BITSFR9              0      0       0      10        0.0%
SFR9                 0      0       0      10        0.0%
BITSFR10             0      0       0      11        0.0%
SFR10                0      0       0      11        0.0%
BITSFR11             0      0       0      12        0.0%
SFR11                0      0       0      12        0.0%
BITSFR12             0      0       0      13        0.0%
SFR12                0      0       0      13        0.0%
BITSFR13             0      0       0      14        0.0%
SFR13                0      0       0      14        0.0%
BITSFR14             0      0       0      15        0.0%
SFR14                0      0       0      15        0.0%
BITSFR15             0      0       0      16        0.0%
SFR15                0      0       0      16        0.0%
BITSFR16             0      0       0      17        0.0%
SFR16                0      0       0      17        0.0%
BITSFR17             0      0       0      18        0.0%
SFR17                0      0       0      18        0.0%
BITSFR18             0      0       0      19        0.0%
SFR18                0      0       0      19        0.0%
BITSFR19             0      0       0      20        0.0%
SFR19                0      0       0      20        0.0%
BITSFR20             0      0       0      21        0.0%
SFR20                0      0       0      21        0.0%
BITSFR21             0      0       0      22        0.0%
SFR21                0      0       0      22        0.0%
BITSFR22             0      0       0      23        0.0%
SFR22                0      0       0      23        0.0%
BITSFR23             0      0       0      24        0.0%
SFR23                0      0       0      24        0.0%
BITSFR24             0      0       0      25        0.0%
SFR24                0      0       0      25        0.0%
BITSFR25             0      0       0      26        0.0%
SFR25                0      0       0      26        0.0%
BITSFR26             0      0       0      27        0.0%
SFR26                0      0       0      27        0.0%
BITSFR27             0      0       0      28        0.0%
SFR27                0      0       0      28        0.0%
BITSFR28             0      0       0      29        0.0%
SFR28                0      0       0      29        0.0%
BITSFR29             0      0       0      30        0.0%
SFR29                0      0       0      30        0.0%
BITSFR30             0      0       0      31        0.0%
SFR30                0      0       0      31        0.0%
BITSFR31             0      0       0      32        0.0%
SFR31                0      0       0      32        0.0%


Microchip Technology PIC Macro Assembler V2.45 build 20230818022343 
Symbol Table                                                                                   Sun Oct 08 02:47:44 2023

                   _SSPSTATbits 0214                              l26 0103                              l81 0037  
                            l74 0074                              l75 0075                              l91 013D  
                            l84 003B                              l69 01CA                              l93 0144  
                            l78 0079             ___wmul@multiplicand 0072                             l211 0269  
                           l108 0067                             l125 008E                             l151 0057  
                           l208 0248                             l145 0461                             l170 03D4  
                           l315 0350                             l148 0044                             l157 019C  
                           l190 00C1                             l183 00B8                             l175 0170  
                           l193 00C7                             l281 0122                             l187 00BD  
                           l293 01FD                             l279 010E                             l742 00E4  
                           l559 02A5                             l807 02F5                             l569 0231  
                           l818 002C                             l795 00AA                             l788 0614  
                           u700 0129                             u701 0128                             u710 013D  
                           u711 013C                             u800 02A1                             u720 0141  
                           u801 02A0                             u721 0140                             u810 0204  
                           u730 0067                             u811 0203                             u731 0066  
                           u740 0272                             u900 02DD                             u741 0271  
                           u901 02DC                             u830 0214                             u910 0515  
                           u670 003B                             u831 0213                             u911 0514  
                           u671 003A                             u760 0282                             u840 021E  
                           u920 055A                             u680 0074                             u761 0281  
                           u841 021D                             u825 0208                             u905 02D9  
                           u921 0559                             u681 0073                             u930 05C0  
                           u690 0079                             u755 0276                             u931 05BF  
                           u691 0078                             u780 0291                             u860 022D  
                           u940 05C5                             u781 0290                             u861 022C  
                           u845 021A                             u941 05C4                             u870 02AB  
                           u950 05E1                             u775 0283                             u855 0223  
                           u871 02AA                             u951 05E0                             u880 02B0  
                           u960 0178                             u785 028D                             u881 02AF  
                           u961 0177                             u890 02BF                             u970 017E  
                           u795 0297                             u891 02BE                             u971 017D  
                           u980 0170                             u981 016F                             u990 010A  
                           u991 0109           _I2C_stop_transmission 0035                             wreg 0009  
                          l1400 029B                            l1402 02A1                            l1410 0207  
                          l1420 0222                            l1412 020C                            l1500 05E2  
                          l1422 0227                            l1414 0210                            l1406 01FE  
                          l1430 02AB                            l1502 05F3                            l1416 0214  
                          l1408 0204                            l1424 022D                            l1440 02EC  
                          l1432 02B0                            l1360 0068                            l1610 01AD  
                          l1602 019D                            l1418 021E                            l1434 02B5  
                          l1450 0515                            l1506 05FC                            l1370 0141  
                          l1362 0124                            l1530 0172                            l1380 026A  
                          l1612 01C4                            l1604 01A3                            l1700 01E6  
                          l1620 0232                            l1436 02BF                            l1428 02A6  
                          l1460 0536                            l1452 051D                            l1356 0035  
                          l1364 0129                            l1372 0059                            l1444 003D  
                          l1540 018C                            l1532 0178                            l1390 027E  
                          l1382 026C                            l1614 01C6                            l1606 01A8  
                          l1710 030A                            l1702 01F5                            l1630 023B  
                          l1622 0234                            l1438 02DD                            l1462 053B  
                          l1470 0550                            l1454 0524                            l1358 0068  
                          l1366 012E                            l1374 005C                            l1446 004F  
                          l1550 015D                            l1542 0190                            l1534 017F  
                          l1392 0282                            l1384 0272                            l1616 01C8  
                          l1608 01A9                            l1720 033A                            l1712 0315  
                          l1640 0247                            l1632 023F                            l1624 0236  
                          l1480 0585                            l1472 055B                            l1464 053E  
                          l1456 0528                            l1448 0504                            l1368 0132  
                          l1376 007B                            l1560 0167                            l1544 0194  
                          l1536 0184                            l1394 0291                            l1386 0275  
                          l1722 033B                            l1714 0319                            l1706 02F6  
                          l1642 024C                            l1634 0241                            l1626 0238  
                          l1490 05C0                            l1482 0593                            l1474 0568  
                          l1458 052F                            l1650 00D0                            l1570 0118  
                          l1562 0104                            l1378 008B                            l1546 0198  
                          l1538 0188                            l1618 03D5                            l1730 0462  
                          l1396 0295                            l1388 027A                            l1724 0342  
                          l1716 0320                            l1708 0307                            l1636 0242  
                          l1628 023A                            l1492 05C6                            l1484 0595  
                          l1468 0540                            l1580 009E                            l1652 00D2  
                          l1572 011E                            l1564 0106                            l1660 0358  
                          l1556 015F                            l1548 0145                            l1740 046D  
                          l1732 0466                            l1398 0296                            l1718 0332  
                          l1726 0348                            l1638 0246                            l1590 00AC  
                          l1494 05D6                            l1486 05A9                            l1478 0575  
                          l1582 00A8                            l1654 00DC                            l1646 00CA  
                          l1566 010A                            l1670 0371                            l1662 0364  
                          l1558 0163                            l1750 047A                            l1742 046D  
                          l1734 046B                            l1592 00AE                            l1496 05DB  
                          l1488 05BA                            l1576 0091                            l1648 00CE  
                          l1568 0113                            l1680 03B5                            l1672 039B  
                          l1664 0370                            l1760 049B                            l1752 047D  
                          l1744 046F                            l1736 046B                            l1586 00E5  
                          l1594 00B3                            l1578 0096                            l1682 03BA  
                          l1674 03A2                            l1690 03C9                            l1658 0353  
                          l1770 04DF                            l1762 049F                            l1754 0485  
                          l1746 0471                            l1738 046B                            l1692 01CB  
                          l1588 00E5                            l1684 03BB                            l1676 03A7  
                          l1772 04EA                            l1764 04A4                            l1756 0489  
                          l1748 0473                            l1694 01D3                            l1598 00C5  
                          l1686 03BF                            l1678 03AF                            l1774 04F5  
                          l1766 04CF                            l1758 048E                            l1696 01D7  
                          l1872 0548                            l1688 03C5                            l1768 04DB  
                          l1698 01DF                            l1874 057D                            l1876 05EE  
                          STR_1 07DC                            STR_2 0045                            u1020 011E  
                          u1100 0364                            u1021 011D                            u1005 010F  
                          u1101 0363                            u1030 00A8                            u1110 0370  
                          u1031 00A7                            u1015 0114                            u1111 036F  
                          u1200 0307                            u1040 0103                            u1120 03A2  
                          u1201 0306                            u1041 0102                            u1121 03A1  
                          u1050 00B8                            u1130 03B5                            u1051 00B7  
                          u1131 03B4                            u1220 0319                            u1060 00BC  
                          u1140 03C5                            u1221 0318                            u1061 00BB  
                          u1141 03C4                            u1070 00C1                            u1150 03D4  
                          u1215 030B                            u1071 00C0                            u1151 03D3  
                          u1240 0332                            u1160 01D7                            u1080 00C5  
                          u1241 0331                            u1161 01D6                            u1081 00C4  
                          u1090 024C                            u1235 031A                            u1091 024B  
                          u1260 0348                            u1261 0347                            u1245 032E  
                          u1190 01F5                            u1255 033C                            u1191 01F4  
                          u1175 01E0                            u1185 01E7                            _dbuf 00A0  
                          _main 0462                            _prec 005D                            fsr0h 0005  
                          fsr1h 0007                            indf0 0000                            fsr0l 0004  
                          indf1 0001                            fsr1l 0006                            btemp 007E  
              __end_of_I2C_init 01CB                            start 0001       I2C_init@I2C_frequency_KHz 0078  
                         ?_main 0070                 __end_of___lldiv 0351                 __end_of___lwdiv 02A6  
               __end_of___lwmod 0232                    vfpfcnvrt@fmt 0078                   ?_ssd1306_data 0070  
           ___lmul@multiplicand 0074           I2C_transmit_data@data 0071                   ?_ssd1306_init 0070  
                         _delay 00E5                           _flags 005F                           _fputc 02A6  
                         _width 005B                           _putch 002C            _ssd1306_current_page 0060  
                         status 0003                           wtemp0 007E                 __end_of_sprintf 00E5  
               __initialization 07E6                    __end_of_main 0502                          ??_main 007E  
        ?_I2C_stop_transmission 0070    __end_of_ssd1306_Print_String 03D5                  ??_ssd1306_data 0076  
                ??_ssd1306_init 0079                          ?_delay 0070               _ssd1306_setcursor 0171  
                        ?_fputc 0070                          _ADRESH 009C                          _ADRESL 009B  
                        ?_putch 0070                __end_of_adc_read 026A              ?_ssd1306_setcursor 0077  
           ??_ssd1306_setcursor 0078                    vfprintf@cfmt 002D                          ___lmul 01CB  
                        ___wmul 0104                __end_of_font_5x8 07DC                       ??___lldiv 007C  
                     ??___lwdiv 0074                       ??___lwmod 0074               ??_I2C_set_address 0071  
                        fputc@c 0070       __end_of_ssd1306_setcursor 019D                       ?_I2C_init 0078  
                        putch@c 0070   __end_of_ssd1306_clear_refresh 0171                __end_of_vfprintf 00AB  
                     ??_sprintf 0033                ssd1306_data@data 0076               _I2C_transmit_data 0058  
       __end_of__initialization 07FE              ?_I2C_transmit_data 0070                  __pcstackCOMMON 0070  
                  __pidataBANK0 002D             ??_I2C_transmit_data 0070                   __end_of_delay 0104  
              _I2C_write_memory 007A                   __end_of_fputc 02F6                   __end_of_putch 002D  
             ??_ssd1306_command 0076     I2C_write_memory@memory_addr 0073           set_osc_freq@frequency 0071  
                    ??_I2C_init 007A                         ??_delay 0074                         ??_fputc 0073  
     __end_of_I2C_transmit_data 0068                         ??_putch 0070                      __pbssBANK0 005B  
                    __pbssBANK1 00A0                    adc_read@data 0074            _ssd1306_Print_String 0351  
          __end_of_ssd1306_data 0058            __end_of_ssd1306_init 0462                      __pmaintext 0462  
                       ?___lmul 0070                         ?___wmul 0070                  ___lmul@product 0078  
                     ?_adc_read 0070                set_osc_freq@freq 0070        ??_I2C_begin_transmission 0070  
                       _SSP1ADD 0212                         _SSP1BUF 0211                         _SSPCON1 0215  
                       _SSPCON2 0216                         _SSPCON3 0217    ssd1306_Print_String@font_col 0020  
         ?_ssd1306_Print_String 0070                  main@milli_volt 0057            I2C_write_memory@data 0074  
                       ___lldiv 02F6                         ___lwdiv 026A                         ___lwmod 01FE  
                     ?_vfprintf 0028                   ?_set_osc_freq 0070         ??_I2C_stop_transmission 0070  
                    ??_adc_read 0072                         __ptext1 03D5                         __ptext2 0171  
                       __ptext3 0145                         __ptext4 003C                         __ptext5 0351  
                       __ptext6 004E                         __ptext7 007A                         __ptext8 0058  
                       __ptext9 0123                         _sprintf 00C8                         clrloop0 0030  
                       main@str 0041            end_of_initialization 07FE                         fputc@fp 0072  
               _I2C_set_address 0123                 ___lldiv@divisor 0020                 ___lldiv@counter 002C  
             __end_of_vfpfcnvrt 0615                vfpfcnvrt@convarg 0021                  ??_set_osc_freq 0070  
                    ??_vfprintf 002B                       _TRISCbits 008E        __end_of_I2C_write_memory 008F  
        ??_ssd1306_Print_String 0077                 _ssd1306_command 003C                  __end_of___lmul 01FE  
                   vfpfcnvrt@ap 0079                     vfpfcnvrt@cp 0025                     vfpfcnvrt@fp 0020  
                __end_of___wmul 0123             _ssd1306_current_col 0061             start_initialization 07E6  
                  _ssd1306_data 004E                    _ssd1306_init 03D5         __end_of_I2C_set_address 0145  
         _ssd1306_clear_refresh 0145         ssd1306_setcursor@column 0077          _I2C_begin_transmission 0068  
        ssd1306_clear_refresh@i 0077                     vfprintf@fmt 0028                        ??___lmul 0078  
                      ??___wmul 0074                     __pdataBANK0 0062                       ___latbits 0000  
                 __pcstackBANK0 0020           ssd1306_setcursor@page 0078            __end_of_set_osc_freq 00C8  
       __end_of_ssd1306_command 0045          ssd1306_command@command 0076                ___lwdiv@dividend 0072  
                      ?___lldiv 0020                        ?___lwdiv 0070                        ?___lwmod 0070  
 __end_of_I2C_stop_transmission 003C      I2C_write_memory@slave_addr 0075                        _I2C_init 019D  
              ___lwdiv@quotient 0075                        ?_sprintf 002F          ?_ssd1306_clear_refresh 0070  
              ?_I2C_set_address 0070                  ___wmul@product 0074                        _LATCbits 010E  
                     clear_ram0 002F                        _PIE1bits 0091                        _PIR1bits 0011  
                     main@F2943 0062                        _SSP1CON2 0216                        _SSP1STAT 0214  
                     _vfpfcnvrt 0502                      _ADCON0bits 009D                      _ADCON1bits 009E  
             ___wmul@multiplier 0070                      vfpfcnvrt@c 0027               ___lmul@multiplier 0070  
             ?_I2C_write_memory 0073                ?_ssd1306_command 0070              ??_I2C_write_memory 0075  
                    vfprintf@ap 002A                      vfprintf@fp 002C                      ?_vfpfcnvrt 0078  
                      _adc_read 0232                      _ANSELCbits 018E                      sprintf@fmt 002F  
               ___lwdiv@divisor 0070         ssd1306_Print_String@str 0023                 ___lwdiv@counter 0077  
                      __ptext10 0035                        __ptext11 0068                        __ptext20 00E5  
                      __ptext12 0104                        __ptext21 0232                        __ptext13 00C8  
                      __ptext22 01CB                        __ptext14 008F                        __ptext23 02F6  
                      __ptext15 0502                        __ptext24 019D                        __ptext16 02A6  
                      __ptext25 026A                        __ptext17 002C                        __ptext18 01FE  
                      __ptext19 00AB                    _SSP1CON1bits 0215                    _SSP1CON2bits 0216  
                      _font_5x8 0615         ?_I2C_begin_transmission 0070                        delay@val 0070  
        I2C_set_address@address 0072                        _vfprintf 008F                        main@data 0055  
                  _SSP1STATbits 0214                    _set_osc_freq 00AB                     _OSCSTATbits 009A  
__end_of_I2C_begin_transmission 007A     ssd1306_Print_String@str_cnt 0021                       sprintf@ap 0034  
              ___lwmod@dividend 0072                ___lldiv@dividend 0024                      _OSCCONbits 0099  
                  main@ADC_data 0059                     ??_vfpfcnvrt 007A                   __pstringtext1 0615  
                 __pstringtext2 0045                   __pstringtext3 0000                        sprintf@f 0036  
                      sprintf@s 0035                ___lldiv@quotient 0028  I2C_set_address@read_write_flag 0070  
               ___lwmod@divisor 0070         ??_ssd1306_clear_refresh 0077                 ___lwmod@counter 0075  
